# SymbolsHelper-Confirmed: 5.2.1 i386
libQt5Location.so.5 libqt5location5 #MINVER#
 _Z5qHashRK12QGeoTileSpec@Base 5.2.1
 _ZN10QPlaceIcon10setManagerEP13QPlaceManager@Base 5.2.1
 _ZN10QPlaceIcon13setParametersERK4QMapI7QString8QVariantE@Base 5.2.1
 _ZN10QPlaceIcon9SingleUrlE@Base 5.2.1
 _ZN10QPlaceIconC1ERKS_@Base 5.2.1
 _ZN10QPlaceIconC1Ev@Base 5.2.1
 _ZN10QPlaceIconC2ERKS_@Base 5.2.1
 _ZN10QPlaceIconC2Ev@Base 5.2.1
 _ZN10QPlaceIconD1Ev@Base 5.2.1
 _ZN10QPlaceIconD2Ev@Base 5.2.1
 _ZN10QPlaceIconaSERKS_@Base 5.2.1
 _ZN10QPlaceUser7setNameERK7QString@Base 5.2.1
 _ZN10QPlaceUser9setUserIdERK7QString@Base 5.2.1
 _ZN10QPlaceUserC1ERKS_@Base 5.2.1
 _ZN10QPlaceUserC1Ev@Base 5.2.1
 _ZN10QPlaceUserC2ERKS_@Base 5.2.1
 _ZN10QPlaceUserC2Ev@Base 5.2.1
 _ZN10QPlaceUserD1Ev@Base 5.2.1
 _ZN10QPlaceUserD2Ev@Base 5.2.1
 _ZN10QPlaceUseraSERKS_@Base 5.2.1
 _ZN11QGeoMapData11qt_metacallEN11QMetaObject4CallEiPPv@Base 5.2.1
 _ZN11QGeoMapData11qt_metacastEPKc@Base 5.2.1
 _ZN11QGeoMapData12pluginStringEv@Base 5.2.1
 _ZN11QGeoMapData13mapControllerEv@Base 5.2.1
 _ZN11QGeoMapData13setCameraDataERK14QGeoCameraData@Base 5.2.1
 _ZN11QGeoMapData14updateRequiredEv@Base 5.2.1
 _ZN11QGeoMapData16setActiveMapTypeE11QGeoMapType@Base 5.2.1
 _ZN11QGeoMapData16staticMetaObjectE@Base 5.2.1
 _ZN11QGeoMapData17cameraDataChangedERK14QGeoCameraData@Base 5.2.1
 _ZN11QGeoMapData17copyrightsChangedERK6QImageRK6QPoint@Base 5.2.1
 _ZN11QGeoMapData18cameraCapabilitiesEv@Base 5.2.1
 _ZN11QGeoMapData20activeMapTypeChangedEv@Base 5.2.1
 _ZN11QGeoMapData22coordinateInterpolatorEv@Base 5.2.1
 _ZN11QGeoMapData25setCoordinateInterpolatorE14QSharedPointerI26QGeoCoordinateInterpolatorE@Base 5.2.1
 _ZN11QGeoMapData6engineEv@Base 5.2.1
 _ZN11QGeoMapData6resizeEii@Base 5.2.1
 _ZN11QGeoMapData6updateEv@Base 5.2.1
 _ZN11QGeoMapDataC1EP24QGeoMappingManagerEngineP7QObject@Base 5.2.1
 _ZN11QGeoMapDataC2EP24QGeoMappingManagerEngineP7QObject@Base 5.2.1
 _ZN11QGeoMapDataD0Ev@Base 5.2.1
 _ZN11QGeoMapDataD1Ev@Base 5.2.1
 _ZN11QGeoMapDataD2Ev@Base 5.2.1
 _ZN11QGeoMapTypeC1ENS_8MapStyleERK7QStringS3_bi@Base 5.2.1
 _ZN11QGeoMapTypeC1ERKS_@Base 5.2.1
 _ZN11QGeoMapTypeC1Ev@Base 5.2.1
 _ZN11QGeoMapTypeC2ENS_8MapStyleERK7QStringS3_bi@Base 5.2.1
 _ZN11QGeoMapTypeC2ERKS_@Base 5.2.1
 _ZN11QGeoMapTypeC2Ev@Base 5.2.1
 _ZN11QGeoMapTypeD1Ev@Base 5.2.1
 _ZN11QGeoMapTypeD2Ev@Base 5.2.1
 _ZN11QGeoMapTypeaSERKS_@Base 5.2.1
 _ZN11QPlaceImage10setImageIdERK7QString@Base 5.2.1
 _ZN11QPlaceImage11setMimeTypeERK7QString@Base 5.2.1
 _ZN11QPlaceImage6setUrlERK4QUrl@Base 5.2.1
 _ZN11QPlaceImageC1ERK13QPlaceContent@Base 5.2.1
 _ZN11QPlaceImageC1Ev@Base 5.2.1
 _ZN11QPlaceImageC2ERK13QPlaceContent@Base 5.2.1
 _ZN11QPlaceImageC2Ev@Base 5.2.1
 _ZN11QPlaceImageD0Ev@Base 5.2.1
 _ZN11QPlaceImageD1Ev@Base 5.2.1
 _ZN11QPlaceImageD2Ev@Base 5.2.1
 _ZN11QPlaceReply11qt_metacallEN11QMetaObject4CallEiPPv@Base 5.2.1
 _ZN11QPlaceReply11qt_metacastEPKc@Base 5.2.1
 _ZN11QPlaceReply11setFinishedEb@Base 5.2.1
 _ZN11QPlaceReply16staticMetaObjectE@Base 5.2.1
 _ZN11QPlaceReply5abortEv@Base 5.2.1
 _ZN11QPlaceReply5errorENS_5ErrorERK7QString@Base 5.2.1
 _ZN11QPlaceReply8finishedEv@Base 5.2.1
 _ZN11QPlaceReply8setErrorENS_5ErrorERK7QString@Base 5.2.1
 _ZN11QPlaceReplyC1EP18QPlaceReplyPrivateP7QObject@Base 5.2.1
 _ZN11QPlaceReplyC1EP7QObject@Base 5.2.1
 _ZN11QPlaceReplyC2EP18QPlaceReplyPrivateP7QObject@Base 5.2.1
 _ZN11QPlaceReplyC2EP7QObject@Base 5.2.1
 _ZN11QPlaceReplyD0Ev@Base 5.2.1
 _ZN11QPlaceReplyD1Ev@Base 5.2.1
 _ZN11QPlaceReplyD2Ev@Base 5.2.1
 _ZN12QGeoManeuver11setPositionERK14QGeoCoordinate@Base 5.2.1
 _ZN12QGeoManeuver11setWaypointERK14QGeoCoordinate@Base 5.2.1
 _ZN12QGeoManeuver12setDirectionENS_20InstructionDirectionE@Base 5.2.1
 _ZN12QGeoManeuver18setInstructionTextERK7QString@Base 5.2.1
 _ZN12QGeoManeuver24setTimeToNextInstructionEi@Base 5.2.1
 _ZN12QGeoManeuver28setDistanceToNextInstructionEd@Base 5.2.1
 _ZN12QGeoManeuverC1ERKS_@Base 5.2.1
 _ZN12QGeoManeuverC1Ev@Base 5.2.1
 _ZN12QGeoManeuverC2ERKS_@Base 5.2.1
 _ZN12QGeoManeuverC2Ev@Base 5.2.1
 _ZN12QGeoManeuverD1Ev@Base 5.2.1
 _ZN12QGeoManeuverD2Ev@Base 5.2.1
 _ZN12QGeoManeuveraSERKS_@Base 5.2.1
 _ZN12QGeoMapScene11qt_metacallEN11QMetaObject4CallEiPPv@Base 5.2.1
 _ZN12QGeoMapScene11qt_metacastEPKc@Base 5.2.1
 _ZN12QGeoMapScene11setTileSizeEi@Base 5.2.1
 _ZN12QGeoMapScene13setCameraDataERK14QGeoCameraData@Base 5.2.1
 _ZN12QGeoMapScene13setScreenSizeERK5QSize@Base 5.2.1
 _ZN12QGeoMapScene13texturedTilesEv@Base 5.2.1
 _ZN12QGeoMapScene15newTilesVisibleERK4QSetI12QGeoTileSpecE@Base 5.2.1
 _ZN12QGeoMapScene15setVisibleTilesERK4QSetI12QGeoTileSpecE@Base 5.2.1
 _ZN12QGeoMapScene16staticMetaObjectE@Base 5.2.1
 _ZN12QGeoMapScene18setUseVerticalLockEb@Base 5.2.1
 _ZN12QGeoMapScene7addTileERK12QGeoTileSpec14QSharedPointerI15QGeoTileTextureE@Base 5.2.1
 _ZN12QGeoMapScene7paintGLEP10QGLPainter@Base 5.2.1
 _ZN12QGeoMapSceneC1Ev@Base 5.2.1
 _ZN12QGeoMapSceneC2Ev@Base 5.2.1
 _ZN12QGeoMapSceneD0Ev@Base 5.2.1
 _ZN12QGeoMapSceneD1Ev@Base 5.2.1
 _ZN12QGeoMapSceneD2Ev@Base 5.2.1
 _ZN12QGeoTileSpec4setXEi@Base 5.2.1
 _ZN12QGeoTileSpec4setYEi@Base 5.2.1
 _ZN12QGeoTileSpec7setZoomEi@Base 5.2.1
 _ZN12QGeoTileSpec8setMapIdEi@Base 5.2.1
 _ZN12QGeoTileSpecC1ERK7QStringiiii@Base 5.2.1
 _ZN12QGeoTileSpecC1ERKS_@Base 5.2.1
 _ZN12QGeoTileSpecC1Ev@Base 5.2.1
 _ZN12QGeoTileSpecC2ERK7QStringiiii@Base 5.2.1
 _ZN12QGeoTileSpecC2ERKS_@Base 5.2.1
 _ZN12QGeoTileSpecC2Ev@Base 5.2.1
 _ZN12QGeoTileSpecD1Ev@Base 5.2.1
 _ZN12QGeoTileSpecD2Ev@Base 5.2.1
 _ZN12QGeoTileSpecaSERKS_@Base 5.2.1
 _ZN12QPlaceResult11setDistanceEd@Base 5.2.1
 _ZN12QPlaceResult12setSponsoredEb@Base 5.2.1
 _ZN12QPlaceResult8setPlaceERK6QPlace@Base 5.2.1
 _ZN12QPlaceResultC1ERK18QPlaceSearchResult@Base 5.2.1
 _ZN12QPlaceResultC1Ev@Base 5.2.1
 _ZN12QPlaceResultC2ERK18QPlaceSearchResult@Base 5.2.1
 _ZN12QPlaceResultC2Ev@Base 5.2.1
 _ZN12QPlaceResultD0Ev@Base 5.2.1
 _ZN12QPlaceResultD1Ev@Base 5.2.1
 _ZN12QPlaceResultD2Ev@Base 5.2.1
 _ZN12QPlaceReview11setDateTimeERK9QDateTime@Base 5.2.1
 _ZN12QPlaceReview11setLanguageERK7QString@Base 5.2.1
 _ZN12QPlaceReview11setReviewIdERK7QString@Base 5.2.1
 _ZN12QPlaceReview7setTextERK7QString@Base 5.2.1
 _ZN12QPlaceReview8setTitleERK7QString@Base 5.2.1
 _ZN12QPlaceReview9setRatingEd@Base 5.2.1
 _ZN12QPlaceReviewC1ERK13QPlaceContent@Base 5.2.1
 _ZN12QPlaceReviewC1Ev@Base 5.2.1
 _ZN12QPlaceReviewC2ERK13QPlaceContent@Base 5.2.1
 _ZN12QPlaceReviewC2Ev@Base 5.2.1
 _ZN12QPlaceReviewD0Ev@Base 5.2.1
 _ZN12QPlaceReviewD1Ev@Base 5.2.1
 _ZN12QPlaceReviewD2Ev@Base 5.2.1
 _ZN13QGeoCodeReply11addLocationERK12QGeoLocation@Base 5.2.1
 _ZN13QGeoCodeReply11qt_metacallEN11QMetaObject4CallEiPPv@Base 5.2.1
 _ZN13QGeoCodeReply11qt_metacastEPKc@Base 5.2.1
 _ZN13QGeoCodeReply11setFinishedEb@Base 5.2.1
 _ZN13QGeoCodeReply11setViewportERK9QGeoShape@Base 5.2.1
 _ZN13QGeoCodeReply12setLocationsERK5QListI12QGeoLocationE@Base 5.2.1
 _ZN13QGeoCodeReply16staticMetaObjectE@Base 5.2.1
 _ZN13QGeoCodeReply5abortEv@Base 5.2.1
 _ZN13QGeoCodeReply5errorENS_5ErrorERK7QString@Base 5.2.1
 _ZN13QGeoCodeReply8finishedEv@Base 5.2.1
 _ZN13QGeoCodeReply8setErrorENS_5ErrorERK7QString@Base 5.2.1
 _ZN13QGeoCodeReply8setLimitEi@Base 5.2.1
 _ZN13QGeoCodeReply9setOffsetEi@Base 5.2.1
 _ZN13QGeoCodeReplyC1ENS_5ErrorERK7QStringP7QObject@Base 5.2.1
 _ZN13QGeoCodeReplyC1EP7QObject@Base 5.2.1
 _ZN13QGeoCodeReplyC2ENS_5ErrorERK7QStringP7QObject@Base 5.2.1
 _ZN13QGeoCodeReplyC2EP7QObject@Base 5.2.1
 _ZN13QGeoCodeReplyD0Ev@Base 5.2.1
 _ZN13QGeoCodeReplyD1Ev@Base 5.2.1
 _ZN13QGeoCodeReplyD2Ev@Base 5.2.1
 _ZN13QGeoTileCache10printStatsEv@Base 5.2.1
 _ZN13QGeoTileCache11handleErrorERK12QGeoTileSpecRK7QString@Base 5.2.1
 _ZN13QGeoTileCache11qt_metacallEN11QMetaObject4CallEiPPv@Base 5.2.1
 _ZN13QGeoTileCache11qt_metacastEPKc@Base 5.2.1
 _ZN13QGeoTileCache12cleanupList_E@Base 5.2.1
 _ZN13QGeoTileCache13cleanupMutex_E@Base 5.2.1
 _ZN13QGeoTileCache14addToDiskCacheERK12QGeoTileSpecRK7QString@Base 5.2.1
 _ZN13QGeoTileCache15setMaxDiskUsageEi@Base 5.2.1
 _ZN13QGeoTileCache16addToMemoryCacheERK12QGeoTileSpecRK10QByteArrayRK7QString@Base 5.2.1
 _ZN13QGeoTileCache16staticMetaObjectE@Base 5.2.1
 _ZN13QGeoTileCache17addToTextureCacheERK12QGeoTileSpecRK7QPixmap@Base 5.2.1
 _ZN13QGeoTileCache17setMaxMemoryUsageEi@Base 5.2.1
 _ZN13QGeoTileCache18GLContextAvailableEv@Base 5.2.1
 _ZN13QGeoTileCache18evictFromDiskCacheEP18QGeoCachedTileDisk@Base 5.2.1
 _ZN13QGeoTileCache18filenameToTileSpecERK7QString@Base 5.2.1
 _ZN13QGeoTileCache18setMinTextureUsageEi@Base 5.2.1
 _ZN13QGeoTileCache18tileSpecToFilenameERK12QGeoTileSpecRK7QStringS5_@Base 5.2.1
 _ZN13QGeoTileCache20evictFromMemoryCacheEP20QGeoCachedTileMemory@Base 5.2.1
 _ZN13QGeoTileCache20setExtraTextureUsageEi@Base 5.2.1
 _ZN13QGeoTileCache21evictFromTextureCacheEP15QGeoTileTexture@Base 5.2.1
 _ZN13QGeoTileCache3getERK12QGeoTileSpec@Base 5.2.1
 _ZN13QGeoTileCache6insertERK12QGeoTileSpecRK10QByteArrayRK7QString6QFlagsIN29QGeoTiledMappingManagerEngine9CacheAreaEE@Base 5.2.1
 _ZN13QGeoTileCache9loadTilesEv@Base 5.2.1
 _ZN13QGeoTileCacheC1ERK7QStringP7QObject@Base 5.2.1
 _ZN13QGeoTileCacheC2ERK7QStringP7QObject@Base 5.2.1
 _ZN13QGeoTileCacheD0Ev@Base 5.2.1
 _ZN13QGeoTileCacheD1Ev@Base 5.2.1
 _ZN13QGeoTileCacheD2Ev@Base 5.2.1
 _ZN13QPlaceContent11setSupplierERK14QPlaceSupplier@Base 5.2.1
 _ZN13QPlaceContent14setAttributionERK7QString@Base 5.2.1
 _ZN13QPlaceContent7setUserERK10QPlaceUser@Base 5.2.1
 _ZN13QPlaceContentC1EP20QPlaceContentPrivate@Base 5.2.1
 _ZN13QPlaceContentC1ERKS_@Base 5.2.1
 _ZN13QPlaceContentC1Ev@Base 5.2.1
 _ZN13QPlaceContentC2EP20QPlaceContentPrivate@Base 5.2.1
 _ZN13QPlaceContentC2ERKS_@Base 5.2.1
 _ZN13QPlaceContentC2Ev@Base 5.2.1
 _ZN13QPlaceContentD0Ev@Base 5.2.1
 _ZN13QPlaceContentD1Ev@Base 5.2.1
 _ZN13QPlaceContentD2Ev@Base 5.2.1
 _ZN13QPlaceContentaSERKS_@Base 5.2.1
 _ZN13QPlaceIdReply11qt_metacallEN11QMetaObject4CallEiPPv@Base 5.2.1
 _ZN13QPlaceIdReply11qt_metacastEPKc@Base 5.2.1
 _ZN13QPlaceIdReply16staticMetaObjectE@Base 5.2.1
 _ZN13QPlaceIdReply5setIdERK7QString@Base 5.2.1
 _ZN13QPlaceIdReplyC1ENS_13OperationTypeEP7QObject@Base 5.2.1
 _ZN13QPlaceIdReplyC2ENS_13OperationTypeEP7QObject@Base 5.2.1
 _ZN13QPlaceIdReplyD0Ev@Base 5.2.1
 _ZN13QPlaceIdReplyD1Ev@Base 5.2.1
 _ZN13QPlaceIdReplyD2Ev@Base 5.2.1
 _ZN13QPlaceManager10placeAddedERK7QString@Base 5.2.1
 _ZN13QPlaceManager10setLocalesERK5QListI7QLocaleE@Base 5.2.1
 _ZN13QPlaceManager11dataChangedEv@Base 5.2.1
 _ZN13QPlaceManager11qt_metacallEN11QMetaObject4CallEiPPv@Base 5.2.1
 _ZN13QPlaceManager11qt_metacastEPKc@Base 5.2.1
 _ZN13QPlaceManager11removePlaceERK7QString@Base 5.2.1
 _ZN13QPlaceManager12placeRemovedERK7QString@Base 5.2.1
 _ZN13QPlaceManager12placeUpdatedERK7QString@Base 5.2.1
 _ZN13QPlaceManager12saveCategoryERK14QPlaceCategoryRK7QString@Base 5.2.1
 _ZN13QPlaceManager13categoryAddedERK14QPlaceCategoryRK7QString@Base 5.2.1
 _ZN13QPlaceManager14removeCategoryERK7QString@Base 5.2.1
 _ZN13QPlaceManager15categoryRemovedERK7QStringS2_@Base 5.2.1
 _ZN13QPlaceManager15categoryUpdatedERK14QPlaceCategoryRK7QString@Base 5.2.1
 _ZN13QPlaceManager15compatiblePlaceERK6QPlace@Base 5.2.1
 _ZN13QPlaceManager16staticMetaObjectE@Base 5.2.1
 _ZN13QPlaceManager20initializeCategoriesEv@Base 5.2.1
 _ZN13QPlaceManager5errorEP11QPlaceReplyNS0_5ErrorERK7QString@Base 5.2.1
 _ZN13QPlaceManager8finishedEP11QPlaceReply@Base 5.2.1
 _ZN13QPlaceManager9savePlaceERK6QPlace@Base 5.2.1
 _ZN13QPlaceManager9setLocaleERK7QLocale@Base 5.2.1
 _ZN13QPlaceManagerC1EP19QPlaceManagerEngineP7QObject@Base 5.2.1
 _ZN13QPlaceManagerC2EP19QPlaceManagerEngineP7QObject@Base 5.2.1
 _ZN13QPlaceManagerD0Ev@Base 5.2.1
 _ZN13QPlaceManagerD1Ev@Base 5.2.1
 _ZN13QPlaceManagerD2Ev@Base 5.2.1
 _ZN13QPlaceRatings10setAverageEd@Base 5.2.1
 _ZN13QPlaceRatings10setMaximumEd@Base 5.2.1
 _ZN13QPlaceRatings8setCountEi@Base 5.2.1
 _ZN13QPlaceRatingsC1ERKS_@Base 5.2.1
 _ZN13QPlaceRatingsC1Ev@Base 5.2.1
 _ZN13QPlaceRatingsC2ERKS_@Base 5.2.1
 _ZN13QPlaceRatingsC2Ev@Base 5.2.1
 _ZN13QPlaceRatingsD1Ev@Base 5.2.1
 _ZN13QPlaceRatingsD2Ev@Base 5.2.1
 _ZN13QPlaceRatingsaSERKS_@Base 5.2.1
 _ZN14QGeoCameraData10setBearingEd@Base 5.2.1
 _ZN14QGeoCameraData12setZoomLevelEd@Base 5.2.1
 _ZN14QGeoCameraData25setCoordinateInterpolatorE14QSharedPointerI26QGeoCoordinateInterpolatorE@Base 5.2.1
 _ZN14QGeoCameraData7setRollEd@Base 5.2.1
 _ZN14QGeoCameraData7setTiltEd@Base 5.2.1
 _ZN14QGeoCameraData9setCenterERK14QGeoCoordinate@Base 5.2.1
 _ZN14QGeoCameraDataC1ERKS_@Base 5.2.1
 _ZN14QGeoCameraDataC1Ev@Base 5.2.1
 _ZN14QGeoCameraDataC2ERKS_@Base 5.2.1
 _ZN14QGeoCameraDataC2Ev@Base 5.2.1
 _ZN14QGeoCameraDataD1Ev@Base 5.2.1
 _ZN14QGeoCameraDataD2Ev@Base 5.2.1
 _ZN14QGeoCameraDataaSERKS_@Base 5.2.1
 _ZN14QGeoProjection15coordToMercatorERK14QGeoCoordinate@Base 5.2.1
 _ZN14QGeoProjection15mercatorToCoordERK15QDoubleVector2D@Base 5.2.1
 _ZN14QGeoProjection7realmodEdd@Base 5.2.1
 _ZN14QGeoRouteReply11qt_metacallEN11QMetaObject4CallEiPPv@Base 5.2.1
 _ZN14QGeoRouteReply11qt_metacastEPKc@Base 5.2.1
 _ZN14QGeoRouteReply11setFinishedEb@Base 5.2.1
 _ZN14QGeoRouteReply16staticMetaObjectE@Base 5.2.1
 _ZN14QGeoRouteReply5abortEv@Base 5.2.1
 _ZN14QGeoRouteReply5errorENS_5ErrorERK7QString@Base 5.2.1
 _ZN14QGeoRouteReply8finishedEv@Base 5.2.1
 _ZN14QGeoRouteReply8setErrorENS_5ErrorERK7QString@Base 5.2.1
 _ZN14QGeoRouteReply9setRoutesERK5QListI9QGeoRouteE@Base 5.2.1
 _ZN14QGeoRouteReplyC1ENS_5ErrorERK7QStringP7QObject@Base 5.2.1
 _ZN14QGeoRouteReplyC1ERK16QGeoRouteRequestP7QObject@Base 5.2.1
 _ZN14QGeoRouteReplyC2ENS_5ErrorERK7QStringP7QObject@Base 5.2.1
 _ZN14QGeoRouteReplyC2ERK16QGeoRouteRequestP7QObject@Base 5.2.1
 _ZN14QGeoRouteReplyD0Ev@Base 5.2.1
 _ZN14QGeoRouteReplyD1Ev@Base 5.2.1
 _ZN14QGeoRouteReplyD2Ev@Base 5.2.1
 _ZN14QPlaceCategory13setCategoryIdERK7QString@Base 5.2.1
 _ZN14QPlaceCategory13setVisibilityEN9QLocation10VisibilityE@Base 5.2.1
 _ZN14QPlaceCategory7setIconERK10QPlaceIcon@Base 5.2.1
 _ZN14QPlaceCategory7setNameERK7QString@Base 5.2.1
 _ZN14QPlaceCategoryC1ERKS_@Base 5.2.1
 _ZN14QPlaceCategoryC1Ev@Base 5.2.1
 _ZN14QPlaceCategoryC2ERKS_@Base 5.2.1
 _ZN14QPlaceCategoryC2Ev@Base 5.2.1
 _ZN14QPlaceCategoryD0Ev@Base 5.2.1
 _ZN14QPlaceCategoryD1Ev@Base 5.2.1
 _ZN14QPlaceCategoryD2Ev@Base 5.2.1
 _ZN14QPlaceCategoryaSERKS_@Base 5.2.1
 _ZN14QPlaceSupplier13setSupplierIdERK7QString@Base 5.2.1
 _ZN14QPlaceSupplier6setUrlERK4QUrl@Base 5.2.1
 _ZN14QPlaceSupplier7setIconERK10QPlaceIcon@Base 5.2.1
 _ZN14QPlaceSupplier7setNameERK7QString@Base 5.2.1
 _ZN14QPlaceSupplierC1ERKS_@Base 5.2.1
 _ZN14QPlaceSupplierC1Ev@Base 5.2.1
 _ZN14QPlaceSupplierC2ERKS_@Base 5.2.1
 _ZN14QPlaceSupplierC2Ev@Base 5.2.1
 _ZN14QPlaceSupplierD1Ev@Base 5.2.1
 _ZN14QPlaceSupplierD2Ev@Base 5.2.1
 _ZN14QPlaceSupplieraSERKS_@Base 5.2.1
 _ZN15QGeoCameraTiles10setMapTypeERK11QGeoMapType@Base 5.2.1
 _ZN15QGeoCameraTiles11setTileSizeEi@Base 5.2.1
 _ZN15QGeoCameraTiles13setScreenSizeERK5QSize@Base 5.2.1
 _ZN15QGeoCameraTiles15setPluginStringERK7QString@Base 5.2.1
 _ZN15QGeoCameraTiles17findPrefetchTilesEv@Base 5.2.1
 _ZN15QGeoCameraTiles19setMaximumZoomLevelEi@Base 5.2.1
 _ZN15QGeoCameraTiles9setCameraERK14QGeoCameraData@Base 5.2.1
 _ZN15QGeoCameraTilesC1Ev@Base 5.2.1
 _ZN15QGeoCameraTilesC2Ev@Base 5.2.1
 _ZN15QGeoCameraTilesD1Ev@Base 5.2.1
 _ZN15QGeoCameraTilesD2Ev@Base 5.2.1
 _ZN15QGeoTileFetcher11handleReplyEP17QGeoTiledMapReplyRK12QGeoTileSpec@Base 5.2.1
 _ZN15QGeoTileFetcher11qt_metacallEN11QMetaObject4CallEiPPv@Base 5.2.1
 _ZN15QGeoTileFetcher11qt_metacastEPKc@Base 5.2.1
 _ZN15QGeoTileFetcher12tileFinishedERK12QGeoTileSpecRK10QByteArrayRK7QString@Base 5.2.1
 _ZN15QGeoTileFetcher13threadStartedEv@Base 5.2.1
 _ZN15QGeoTileFetcher14threadFinishedEv@Base 5.2.1
 _ZN15QGeoTileFetcher15requestNextTileEv@Base 5.2.1
 _ZN15QGeoTileFetcher16staticMetaObjectE@Base 5.2.1
 _ZN15QGeoTileFetcher18cancelTileRequestsERK4QSetI12QGeoTileSpecE@Base 5.2.1
 _ZN15QGeoTileFetcher18updateTileRequestsERK4QSetI12QGeoTileSpecES4_@Base 5.2.1
 _ZN15QGeoTileFetcher4initEv@Base 5.2.1
 _ZN15QGeoTileFetcher8finishedEv@Base 5.2.1
 _ZN15QGeoTileFetcher9stopTimerEv@Base 5.2.1
 _ZN15QGeoTileFetcher9tileErrorERK12QGeoTileSpecRK7QString@Base 5.2.1
 _ZN15QGeoTileFetcherC1EP29QGeoTiledMappingManagerEngineP7QObject@Base 5.2.1
 _ZN15QGeoTileFetcherC2EP29QGeoTiledMappingManagerEngineP7QObject@Base 5.2.1
 _ZN15QGeoTileFetcherD0Ev@Base 5.2.1
 _ZN15QGeoTileFetcherD1Ev@Base 5.2.1
 _ZN15QGeoTileFetcherD2Ev@Base 5.2.1
 _ZN15QGeoTileTextureC1Ev@Base 5.2.1
 _ZN15QGeoTileTextureC2Ev@Base 5.2.1
 _ZN15QGeoTileTextureD1Ev@Base 5.2.1
 _ZN15QGeoTileTextureD2Ev@Base 5.2.1
 _ZN15QPlaceAttribute12OpeningHoursE@Base 5.2.1
 _ZN15QPlaceAttribute7PaymentE@Base 5.2.1
 _ZN15QPlaceAttribute7setTextERK7QString@Base 5.2.1
 _ZN15QPlaceAttribute8ProviderE@Base 5.2.1
 _ZN15QPlaceAttribute8setLabelERK7QString@Base 5.2.1
 _ZN15QPlaceAttributeC1ERKS_@Base 5.2.1
 _ZN15QPlaceAttributeC1Ev@Base 5.2.1
 _ZN15QPlaceAttributeC2ERKS_@Base 5.2.1
 _ZN15QPlaceAttributeC2Ev@Base 5.2.1
 _ZN15QPlaceAttributeD0Ev@Base 5.2.1
 _ZN15QPlaceAttributeD1Ev@Base 5.2.1
 _ZN15QPlaceAttributeD2Ev@Base 5.2.1
 _ZN15QPlaceAttributeaSERKS_@Base 5.2.1
 _ZN15QPlaceEditorial11setLanguageERK7QString@Base 5.2.1
 _ZN15QPlaceEditorial7setTextERK7QString@Base 5.2.1
 _ZN15QPlaceEditorial8setTitleERK7QString@Base 5.2.1
 _ZN15QPlaceEditorialC1ERK13QPlaceContent@Base 5.2.1
 _ZN15QPlaceEditorialC1Ev@Base 5.2.1
 _ZN15QPlaceEditorialC2ERK13QPlaceContent@Base 5.2.1
 _ZN15QPlaceEditorialC2Ev@Base 5.2.1
 _ZN15QPlaceEditorialD0Ev@Base 5.2.1
 _ZN15QPlaceEditorialD1Ev@Base 5.2.1
 _ZN15QPlaceEditorialD2Ev@Base 5.2.1
 _ZN16QGeoRouteRequest12setWaypointsERK5QListI14QGeoCoordinateE@Base 5.2.1
 _ZN16QGeoRouteRequest14setTravelModesE6QFlagsINS_10TravelModeEE@Base 5.2.1
 _ZN16QGeoRouteRequest15setExcludeAreasERK5QListI13QGeoRectangleE@Base 5.2.1
 _ZN16QGeoRouteRequest16setFeatureWeightENS_11FeatureTypeENS_13FeatureWeightE@Base 5.2.1
 _ZN16QGeoRouteRequest16setSegmentDetailENS_13SegmentDetailE@Base 5.2.1
 _ZN16QGeoRouteRequest17setManeuverDetailENS_14ManeuverDetailE@Base 5.2.1
 _ZN16QGeoRouteRequest20setRouteOptimizationE6QFlagsINS_17RouteOptimizationEE@Base 5.2.1
 _ZN16QGeoRouteRequest26setNumberAlternativeRoutesEi@Base 5.2.1
 _ZN16QGeoRouteRequestC1ERK14QGeoCoordinateS2_@Base 5.2.1
 _ZN16QGeoRouteRequestC1ERK5QListI14QGeoCoordinateE@Base 5.2.1
 _ZN16QGeoRouteRequestC1ERKS_@Base 5.2.1
 _ZN16QGeoRouteRequestC2ERK14QGeoCoordinateS2_@Base 5.2.1
 _ZN16QGeoRouteRequestC2ERK5QListI14QGeoCoordinateE@Base 5.2.1
 _ZN16QGeoRouteRequestC2ERKS_@Base 5.2.1
 _ZN16QGeoRouteRequestD1Ev@Base 5.2.1
 _ZN16QGeoRouteRequestD2Ev@Base 5.2.1
 _ZN16QGeoRouteRequestaSERKS_@Base 5.2.1
 _ZN16QGeoRouteSegment11setDistanceEd@Base 5.2.1
 _ZN16QGeoRouteSegment11setManeuverERK12QGeoManeuver@Base 5.2.1
 _ZN16QGeoRouteSegment13setTravelTimeEi@Base 5.2.1
 _ZN16QGeoRouteSegment19setNextRouteSegmentERKS_@Base 5.2.1
 _ZN16QGeoRouteSegment7setPathERK5QListI14QGeoCoordinateE@Base 5.2.1
 _ZN16QGeoRouteSegmentC1ER28QExplicitlySharedDataPointerI23QGeoRouteSegmentPrivateE@Base 5.2.1
 _ZN16QGeoRouteSegmentC1ERKS_@Base 5.2.1
 _ZN16QGeoRouteSegmentC1Ev@Base 5.2.1
 _ZN16QGeoRouteSegmentC2ER28QExplicitlySharedDataPointerI23QGeoRouteSegmentPrivateE@Base 5.2.1
 _ZN16QGeoRouteSegmentC2ERKS_@Base 5.2.1
 _ZN16QGeoRouteSegmentC2Ev@Base 5.2.1
 _ZN16QGeoRouteSegmentD1Ev@Base 5.2.1
 _ZN16QGeoRouteSegmentD2Ev@Base 5.2.1
 _ZN16QGeoRouteSegmentaSERKS_@Base 5.2.1
 _ZN16QGeoTiledMapData10mapResizedEii@Base 5.2.1
 _ZN16QGeoTiledMapData11qt_metacallEN11QMetaObject4CallEiPPv@Base 5.2.1
 _ZN16QGeoTiledMapData11qt_metacastEPKc@Base 5.2.1
 _ZN16QGeoTiledMapData12prefetchDataEv@Base 5.2.1
 _ZN16QGeoTiledMapData14newTileFetchedERK12QGeoTileSpec@Base 5.2.1
 _ZN16QGeoTiledMapData16changeCameraDataERK14QGeoCameraData@Base 5.2.1
 _ZN16QGeoTiledMapData16staticMetaObjectE@Base 5.2.1
 _ZN16QGeoTiledMapData17getRequestManagerEv@Base 5.2.1
 _ZN16QGeoTiledMapData18evaluateCopyrightsERK4QSetI12QGeoTileSpecE@Base 5.2.1
 _ZN16QGeoTiledMapData19changeActiveMapTypeE11QGeoMapType@Base 5.2.1
 _ZN16QGeoTiledMapData7paintGLEP10QGLPainter@Base 5.2.1
 _ZN16QGeoTiledMapData9tileCacheEv@Base 5.2.1
 _ZN16QGeoTiledMapDataC1EP29QGeoTiledMappingManagerEngineP7QObject@Base 5.2.1
 _ZN16QGeoTiledMapDataC2EP29QGeoTiledMappingManagerEngineP7QObject@Base 5.2.1
 _ZN16QGeoTiledMapDataD0Ev@Base 5.2.1
 _ZN16QGeoTiledMapDataD1Ev@Base 5.2.1
 _ZN16QGeoTiledMapDataD2Ev@Base 5.2.1
 _ZN16QPlaceMatchReply10setRequestERK18QPlaceMatchRequest@Base 5.2.1
 _ZN16QPlaceMatchReply11qt_metacallEN11QMetaObject4CallEiPPv@Base 5.2.1
 _ZN16QPlaceMatchReply11qt_metacastEPKc@Base 5.2.1
 _ZN16QPlaceMatchReply16staticMetaObjectE@Base 5.2.1
 _ZN16QPlaceMatchReply9setPlacesERK5QListI6QPlaceE@Base 5.2.1
 _ZN16QPlaceMatchReplyC1EP7QObject@Base 5.2.1
 _ZN16QPlaceMatchReplyC2EP7QObject@Base 5.2.1
 _ZN16QPlaceMatchReplyD0Ev@Base 5.2.1
 _ZN16QPlaceMatchReplyD1Ev@Base 5.2.1
 _ZN16QPlaceMatchReplyD2Ev@Base 5.2.1
 _ZN17QGeoCodingManager11qt_metacallEN11QMetaObject4CallEiPPv@Base 5.2.1
 _ZN17QGeoCodingManager11qt_metacastEPKc@Base 5.2.1
 _ZN17QGeoCodingManager14reverseGeocodeERK14QGeoCoordinateRK9QGeoShape@Base 5.2.1
 _ZN17QGeoCodingManager16staticMetaObjectE@Base 5.2.1
 _ZN17QGeoCodingManager5errorEP13QGeoCodeReplyNS0_5ErrorE7QString@Base 5.2.1
 _ZN17QGeoCodingManager7geocodeERK11QGeoAddressRK9QGeoShape@Base 5.2.1
 _ZN17QGeoCodingManager7geocodeERK7QStringiiRK9QGeoShape@Base 5.2.1
 _ZN17QGeoCodingManager8finishedEP13QGeoCodeReply@Base 5.2.1
 _ZN17QGeoCodingManager9setLocaleERK7QLocale@Base 5.2.1
 _ZN17QGeoCodingManagerC1EP23QGeoCodingManagerEngineP7QObject@Base 5.2.1
 _ZN17QGeoCodingManagerC2EP23QGeoCodingManagerEngineP7QObject@Base 5.2.1
 _ZN17QGeoCodingManagerD0Ev@Base 5.2.1
 _ZN17QGeoCodingManagerD1Ev@Base 5.2.1
 _ZN17QGeoCodingManagerD2Ev@Base 5.2.1
 _ZN17QGeoMapController10setBearingEd@Base 5.2.1
 _ZN17QGeoMapController11qt_metacallEN11QMetaObject4CallEiPPv@Base 5.2.1
 _ZN17QGeoMapController11qt_metacastEPKc@Base 5.2.1
 _ZN17QGeoMapController11rollChangedEd@Base 5.2.1
 _ZN17QGeoMapController11setAltitudeEd@Base 5.2.1
 _ZN17QGeoMapController11setLatitudeEd@Base 5.2.1
 _ZN17QGeoMapController11tiltChangedEd@Base 5.2.1
 _ZN17QGeoMapController11zoomChangedEd@Base 5.2.1
 _ZN17QGeoMapController12setLongitudeEd@Base 5.2.1
 _ZN17QGeoMapController13centerChangedERK20AnimatableCoordinate@Base 5.2.1
 _ZN17QGeoMapController14bearingChangedEd@Base 5.2.1
 _ZN17QGeoMapController16staticMetaObjectE@Base 5.2.1
 _ZN17QGeoMapController17cameraDataChangedERK14QGeoCameraData@Base 5.2.1
 _ZN17QGeoMapController3panEdd@Base 5.2.1
 _ZN17QGeoMapController7setRollEd@Base 5.2.1
 _ZN17QGeoMapController7setTiltEd@Base 5.2.1
 _ZN17QGeoMapController7setZoomEd@Base 5.2.1
 _ZN17QGeoMapController9setCenterERK20AnimatableCoordinate@Base 5.2.1
 _ZN17QGeoMapControllerC1EP11QGeoMapData14QSharedPointerI26QGeoCoordinateInterpolatorE@Base 5.2.1
 _ZN17QGeoMapControllerC2EP11QGeoMapData14QSharedPointerI26QGeoCoordinateInterpolatorE@Base 5.2.1
 _ZN17QGeoMapControllerD0Ev@Base 5.2.1
 _ZN17QGeoMapControllerD1Ev@Base 5.2.1
 _ZN17QGeoMapControllerD2Ev@Base 5.2.1
 _ZN17QGeoTiledMapReply11qt_metacallEN11QMetaObject4CallEiPPv@Base 5.2.1
 _ZN17QGeoTiledMapReply11qt_metacastEPKc@Base 5.2.1
 _ZN17QGeoTiledMapReply11setFinishedEb@Base 5.2.1
 _ZN17QGeoTiledMapReply15setMapImageDataERK10QByteArray@Base 5.2.1
 _ZN17QGeoTiledMapReply16staticMetaObjectE@Base 5.2.1
 _ZN17QGeoTiledMapReply17setMapImageFormatERK7QString@Base 5.2.1
 _ZN17QGeoTiledMapReply5abortEv@Base 5.2.1
 _ZN17QGeoTiledMapReply5errorENS_5ErrorERK7QString@Base 5.2.1
 _ZN17QGeoTiledMapReply8finishedEv@Base 5.2.1
 _ZN17QGeoTiledMapReply8setErrorENS_5ErrorERK7QString@Base 5.2.1
 _ZN17QGeoTiledMapReply9setCachedEb@Base 5.2.1
 _ZN17QGeoTiledMapReplyC1ENS_5ErrorERK7QStringP7QObject@Base 5.2.1
 _ZN17QGeoTiledMapReplyC1ERK12QGeoTileSpecP7QObject@Base 5.2.1
 _ZN17QGeoTiledMapReplyC2ENS_5ErrorERK7QStringP7QObject@Base 5.2.1
 _ZN17QGeoTiledMapReplyC2ERK12QGeoTileSpecP7QObject@Base 5.2.1
 _ZN17QGeoTiledMapReplyD0Ev@Base 5.2.1
 _ZN17QGeoTiledMapReplyD1Ev@Base 5.2.1
 _ZN17QGeoTiledMapReplyD2Ev@Base 5.2.1
 _ZN17QPlaceSearchReply10setRequestERK19QPlaceSearchRequest@Base 5.2.1
 _ZN17QPlaceSearchReply10setResultsERK5QListI18QPlaceSearchResultE@Base 5.2.1
 _ZN17QPlaceSearchReply11qt_metacallEN11QMetaObject4CallEiPPv@Base 5.2.1
 _ZN17QPlaceSearchReply11qt_metacastEPKc@Base 5.2.1
 _ZN17QPlaceSearchReply16staticMetaObjectE@Base 5.2.1
 _ZN17QPlaceSearchReplyC1EP7QObject@Base 5.2.1
 _ZN17QPlaceSearchReplyC2EP7QObject@Base 5.2.1
 _ZN17QPlaceSearchReplyD0Ev@Base 5.2.1
 _ZN17QPlaceSearchReplyD1Ev@Base 5.2.1
 _ZN17QPlaceSearchReplyD2Ev@Base 5.2.1
 _ZN18QGeoMappingManager11initializedEv@Base 5.2.1
 _ZN18QGeoMappingManager11qt_metacallEN11QMetaObject4CallEiPPv@Base 5.2.1
 _ZN18QGeoMappingManager11qt_metacastEPKc@Base 5.2.1
 _ZN18QGeoMappingManager16staticMetaObjectE@Base 5.2.1
 _ZN18QGeoMappingManager9createMapEP7QObject@Base 5.2.1
 _ZN18QGeoMappingManager9setLocaleERK7QLocale@Base 5.2.1
 _ZN18QGeoMappingManagerC1EP24QGeoMappingManagerEngineP7QObject@Base 5.2.1
 _ZN18QGeoMappingManagerC2EP24QGeoMappingManagerEngineP7QObject@Base 5.2.1
 _ZN18QGeoMappingManagerD0Ev@Base 5.2.1
 _ZN18QGeoMappingManagerD1Ev@Base 5.2.1
 _ZN18QGeoMappingManagerD2Ev@Base 5.2.1
 _ZN18QGeoRoutingManager11qt_metacallEN11QMetaObject4CallEiPPv@Base 5.2.1
 _ZN18QGeoRoutingManager11qt_metacastEPKc@Base 5.2.1
 _ZN18QGeoRoutingManager11updateRouteERK9QGeoRouteRK14QGeoCoordinate@Base 5.2.1
 _ZN18QGeoRoutingManager14calculateRouteERK16QGeoRouteRequest@Base 5.2.1
 _ZN18QGeoRoutingManager16staticMetaObjectE@Base 5.2.1
 _ZN18QGeoRoutingManager5errorEP14QGeoRouteReplyNS0_5ErrorE7QString@Base 5.2.1
 _ZN18QGeoRoutingManager8finishedEP14QGeoRouteReply@Base 5.2.1
 _ZN18QGeoRoutingManager9setLocaleERK7QLocale@Base 5.2.1
 _ZN18QGeoRoutingManagerC1EP24QGeoRoutingManagerEngineP7QObject@Base 5.2.1
 _ZN18QGeoRoutingManagerC2EP24QGeoRoutingManagerEngineP7QObject@Base 5.2.1
 _ZN18QGeoRoutingManagerD0Ev@Base 5.2.1
 _ZN18QGeoRoutingManagerD1Ev@Base 5.2.1
 _ZN18QGeoRoutingManagerD2Ev@Base 5.2.1
 _ZN18QPlaceContentReply10setContentERK4QMapIi13QPlaceContentE@Base 5.2.1
 _ZN18QPlaceContentReply10setRequestERK20QPlaceContentRequest@Base 5.2.1
 _ZN18QPlaceContentReply11qt_metacallEN11QMetaObject4CallEiPPv@Base 5.2.1
 _ZN18QPlaceContentReply11qt_metacastEPKc@Base 5.2.1
 _ZN18QPlaceContentReply13setTotalCountEi@Base 5.2.1
 _ZN18QPlaceContentReply16staticMetaObjectE@Base 5.2.1
 _ZN18QPlaceContentReplyC1EP7QObject@Base 5.2.1
 _ZN18QPlaceContentReplyC2EP7QObject@Base 5.2.1
 _ZN18QPlaceContentReplyD0Ev@Base 5.2.1
 _ZN18QPlaceContentReplyD1Ev@Base 5.2.1
 _ZN18QPlaceContentReplyD2Ev@Base 5.2.1
 _ZN18QPlaceDetailsReply11qt_metacallEN11QMetaObject4CallEiPPv@Base 5.2.1
 _ZN18QPlaceDetailsReply11qt_metacastEPKc@Base 5.2.1
 _ZN18QPlaceDetailsReply16staticMetaObjectE@Base 5.2.1
 _ZN18QPlaceDetailsReply8setPlaceERK6QPlace@Base 5.2.1
 _ZN18QPlaceDetailsReplyC1EP7QObject@Base 5.2.1
 _ZN18QPlaceDetailsReplyC2EP7QObject@Base 5.2.1
 _ZN18QPlaceDetailsReplyD0Ev@Base 5.2.1
 _ZN18QPlaceDetailsReplyD1Ev@Base 5.2.1
 _ZN18QPlaceDetailsReplyD2Ev@Base 5.2.1
 _ZN18QPlaceMatchRequest10setResultsERK5QListI18QPlaceSearchResultE@Base 5.2.1
 _ZN18QPlaceMatchRequest13AlternativeIdE@Base 5.2.1
 _ZN18QPlaceMatchRequest13setParametersERK4QMapI7QString8QVariantE@Base 5.2.1
 _ZN18QPlaceMatchRequest5clearEv@Base 5.2.1
 _ZN18QPlaceMatchRequest9setPlacesE5QListI6QPlaceE@Base 5.2.1
 _ZN18QPlaceMatchRequestC1ERKS_@Base 5.2.1
 _ZN18QPlaceMatchRequestC1Ev@Base 5.2.1
 _ZN18QPlaceMatchRequestC2ERKS_@Base 5.2.1
 _ZN18QPlaceMatchRequestC2Ev@Base 5.2.1
 _ZN18QPlaceMatchRequestD1Ev@Base 5.2.1
 _ZN18QPlaceMatchRequestD2Ev@Base 5.2.1
 _ZN18QPlaceMatchRequestaSERKS_@Base 5.2.1
 _ZN18QPlaceSearchResult7setIconERK10QPlaceIcon@Base 5.2.1
 _ZN18QPlaceSearchResult8setTitleERK7QString@Base 5.2.1
 _ZN18QPlaceSearchResultC1EP25QPlaceSearchResultPrivate@Base 5.2.1
 _ZN18QPlaceSearchResultC1ERKS_@Base 5.2.1
 _ZN18QPlaceSearchResultC1Ev@Base 5.2.1
 _ZN18QPlaceSearchResultC2EP25QPlaceSearchResultPrivate@Base 5.2.1
 _ZN18QPlaceSearchResultC2ERKS_@Base 5.2.1
 _ZN18QPlaceSearchResultC2Ev@Base 5.2.1
 _ZN18QPlaceSearchResultD0Ev@Base 5.2.1
 _ZN18QPlaceSearchResultD1Ev@Base 5.2.1
 _ZN18QPlaceSearchResultD2Ev@Base 5.2.1
 _ZN18QPlaceSearchResultaSERKS_@Base 5.2.1
 _ZN19QGeoServiceProvider11qt_metacallEN11QMetaObject4CallEiPPv@Base 5.2.1
 _ZN19QGeoServiceProvider11qt_metacastEPKc@Base 5.2.1
 _ZN19QGeoServiceProvider13setParametersERK4QMapI7QString8QVariantE@Base 5.2.1
 _ZN19QGeoServiceProvider16staticMetaObjectE@Base 5.2.1
 _ZN19QGeoServiceProvider20setAllowExperimentalEb@Base 5.2.1
 _ZN19QGeoServiceProvider25availableServiceProvidersEv@Base 5.2.1
 _ZN19QGeoServiceProvider9setLocaleERK7QLocale@Base 5.2.1
 _ZN19QGeoServiceProviderC1ERK7QStringRK4QMapIS0_8QVariantEb@Base 5.2.1
 _ZN19QGeoServiceProviderC2ERK7QStringRK4QMapIS0_8QVariantEb@Base 5.2.1
 _ZN19QGeoServiceProviderD0Ev@Base 5.2.1
 _ZN19QGeoServiceProviderD1Ev@Base 5.2.1
 _ZN19QGeoServiceProviderD2Ev@Base 5.2.1
 _ZN19QPlaceContactDetail3FaxE@Base 5.2.1
 _ZN19QPlaceContactDetail5EmailE@Base 5.2.1
 _ZN19QPlaceContactDetail5PhoneE@Base 5.2.1
 _ZN19QPlaceContactDetail5clearEv@Base 5.2.1
 _ZN19QPlaceContactDetail7WebsiteE@Base 5.2.1
 _ZN19QPlaceContactDetail8setLabelERK7QString@Base 5.2.1
 _ZN19QPlaceContactDetail8setValueERK7QString@Base 5.2.1
 _ZN19QPlaceContactDetailC1ERKS_@Base 5.2.1
 _ZN19QPlaceContactDetailC1Ev@Base 5.2.1
 _ZN19QPlaceContactDetailC2ERKS_@Base 5.2.1
 _ZN19QPlaceContactDetailC2Ev@Base 5.2.1
 _ZN19QPlaceContactDetailD0Ev@Base 5.2.1
 _ZN19QPlaceContactDetailD1Ev@Base 5.2.1
 _ZN19QPlaceContactDetailD2Ev@Base 5.2.1
 _ZN19QPlaceContactDetailaSERKS_@Base 5.2.1
 _ZN19QPlaceManagerEngine10placeAddedERK7QString@Base 5.2.1
 _ZN19QPlaceManagerEngine10setLocalesERK5QListI7QLocaleE@Base 5.2.1
 _ZN19QPlaceManagerEngine11dataChangedEv@Base 5.2.1
 _ZN19QPlaceManagerEngine11qt_metacallEN11QMetaObject4CallEiPPv@Base 5.2.1
 _ZN19QPlaceManagerEngine11qt_metacastEPKc@Base 5.2.1
 _ZN19QPlaceManagerEngine11removePlaceERK7QString@Base 5.2.1
 _ZN19QPlaceManagerEngine12placeRemovedERK7QString@Base 5.2.1
 _ZN19QPlaceManagerEngine12placeUpdatedERK7QString@Base 5.2.1
 _ZN19QPlaceManagerEngine12saveCategoryERK14QPlaceCategoryRK7QString@Base 5.2.1
 _ZN19QPlaceManagerEngine13categoryAddedERK14QPlaceCategoryRK7QString@Base 5.2.1
 _ZN19QPlaceManagerEngine14matchingPlacesERK18QPlaceMatchRequest@Base 5.2.1
 _ZN19QPlaceManagerEngine14removeCategoryERK7QString@Base 5.2.1
 _ZN19QPlaceManagerEngine14setManagerNameERK7QString@Base 5.2.1
 _ZN19QPlaceManagerEngine15categoryRemovedERK7QStringS2_@Base 5.2.1
 _ZN19QPlaceManagerEngine15categoryUpdatedERK14QPlaceCategoryRK7QString@Base 5.2.1
 _ZN19QPlaceManagerEngine15getPlaceContentERK7QStringRK20QPlaceContentRequest@Base 5.2.1
 _ZN19QPlaceManagerEngine15getPlaceDetailsERK7QString@Base 5.2.1
 _ZN19QPlaceManagerEngine16staticMetaObjectE@Base 5.2.1
 _ZN19QPlaceManagerEngine17searchSuggestionsERK19QPlaceSearchRequest@Base 5.2.1
 _ZN19QPlaceManagerEngine17setManagerVersionEi@Base 5.2.1
 _ZN19QPlaceManagerEngine20initializeCategoriesEv@Base 5.2.1
 _ZN19QPlaceManagerEngine5errorEP11QPlaceReplyNS0_5ErrorERK7QString@Base 5.2.1
 _ZN19QPlaceManagerEngine6searchERK19QPlaceSearchRequest@Base 5.2.1
 _ZN19QPlaceManagerEngine8finishedEP11QPlaceReply@Base 5.2.1
 _ZN19QPlaceManagerEngine9savePlaceERK6QPlace@Base 5.2.1
 _ZN19QPlaceManagerEngineC1ERK4QMapI7QString8QVariantEP7QObject@Base 5.2.1
 _ZN19QPlaceManagerEngineC2ERK4QMapI7QString8QVariantEP7QObject@Base 5.2.1
 _ZN19QPlaceManagerEngineD0Ev@Base 5.2.1
 _ZN19QPlaceManagerEngineD1Ev@Base 5.2.1
 _ZN19QPlaceManagerEngineD2Ev@Base 5.2.1
 _ZN19QPlaceSearchRequest11setCategoryERK14QPlaceCategory@Base 5.2.1
 _ZN19QPlaceSearchRequest13setCategoriesERK5QListI14QPlaceCategoryE@Base 5.2.1
 _ZN19QPlaceSearchRequest13setSearchAreaERK9QGeoShape@Base 5.2.1
 _ZN19QPlaceSearchRequest13setSearchTermERK7QString@Base 5.2.1
 _ZN19QPlaceSearchRequest16setRelevanceHintENS_13RelevanceHintE@Base 5.2.1
 _ZN19QPlaceSearchRequest16setSearchContextERK8QVariant@Base 5.2.1
 _ZN19QPlaceSearchRequest18setVisibilityScopeE6QFlagsIN9QLocation10VisibilityEE@Base 5.2.1
 _ZN19QPlaceSearchRequest19setRecommendationIdERK7QString@Base 5.2.1
 _ZN19QPlaceSearchRequest5clearEv@Base 5.2.1
 _ZN19QPlaceSearchRequest8setLimitEi@Base 5.2.1
 _ZN19QPlaceSearchRequest9setOffsetEi@Base 5.2.1
 _ZN19QPlaceSearchRequestC1ERKS_@Base 5.2.1
 _ZN19QPlaceSearchRequestC1Ev@Base 5.2.1
 _ZN19QPlaceSearchRequestC2ERKS_@Base 5.2.1
 _ZN19QPlaceSearchRequestC2Ev@Base 5.2.1
 _ZN19QPlaceSearchRequestD1Ev@Base 5.2.1
 _ZN19QPlaceSearchRequestD2Ev@Base 5.2.1
 _ZN19QPlaceSearchRequestaSERKS_@Base 5.2.1
 _ZN20AnimatableCoordinate13setCoordinateERK14QGeoCoordinate@Base 5.2.1
 _ZN20AnimatableCoordinate15setInterpolatorE14QSharedPointerI26QGeoCoordinateInterpolatorE@Base 5.2.1
 _ZN20AnimatableCoordinateC1ERK14QGeoCoordinate14QSharedPointerI26QGeoCoordinateInterpolatorE@Base 5.2.1
 _ZN20AnimatableCoordinateC1Ev@Base 5.2.1
 _ZN20AnimatableCoordinateC2ERK14QGeoCoordinate14QSharedPointerI26QGeoCoordinateInterpolatorE@Base 5.2.1
 _ZN20AnimatableCoordinateC2Ev@Base 5.2.1
 _ZN20QPlaceContentRequest14setContentTypeEN13QPlaceContent4TypeE@Base 5.2.1
 _ZN20QPlaceContentRequest5clearEv@Base 5.2.1
 _ZN20QPlaceContentRequest8setLimitEi@Base 5.2.1
 _ZN20QPlaceContentRequest9setOffsetEi@Base 5.2.1
 _ZN20QPlaceContentRequestC1ERKS_@Base 5.2.1
 _ZN20QPlaceContentRequestC1Ev@Base 5.2.1
 _ZN20QPlaceContentRequestC2ERKS_@Base 5.2.1
 _ZN20QPlaceContentRequestC2Ev@Base 5.2.1
 _ZN20QPlaceContentRequestD1Ev@Base 5.2.1
 _ZN20QPlaceContentRequestD2Ev@Base 5.2.1
 _ZN20QPlaceContentRequestaSERKS_@Base 5.2.1
 _ZN22QGeoCameraCapabilities14setMaximumTiltEd@Base 5.2.1
 _ZN22QGeoCameraCapabilities14setMinimumTiltEd@Base 5.2.1
 _ZN22QGeoCameraCapabilities18setSupportsBearingEb@Base 5.2.1
 _ZN22QGeoCameraCapabilities18setSupportsRollingEb@Base 5.2.1
 _ZN22QGeoCameraCapabilities18setSupportsTiltingEb@Base 5.2.1
 _ZN22QGeoCameraCapabilities19setMaximumZoomLevelEd@Base 5.2.1
 _ZN22QGeoCameraCapabilities19setMinimumZoomLevelEd@Base 5.2.1
 _ZN22QGeoCameraCapabilitiesC1ERKS_@Base 5.2.1
 _ZN22QGeoCameraCapabilitiesC1Ev@Base 5.2.1
 _ZN22QGeoCameraCapabilitiesC2ERKS_@Base 5.2.1
 _ZN22QGeoCameraCapabilitiesC2Ev@Base 5.2.1
 _ZN22QGeoCameraCapabilitiesD1Ev@Base 5.2.1
 _ZN22QGeoCameraCapabilitiesD2Ev@Base 5.2.1
 _ZN22QGeoCameraCapabilitiesaSERKS_@Base 5.2.1
 _ZN23QGeoCodingManagerEngine11qt_metacallEN11QMetaObject4CallEiPPv@Base 5.2.1
 _ZN23QGeoCodingManagerEngine11qt_metacastEPKc@Base 5.2.1
 _ZN23QGeoCodingManagerEngine14reverseGeocodeERK14QGeoCoordinateRK9QGeoShape@Base 5.2.1
 _ZN23QGeoCodingManagerEngine14setManagerNameERK7QString@Base 5.2.1
 _ZN23QGeoCodingManagerEngine16staticMetaObjectE@Base 5.2.1
 _ZN23QGeoCodingManagerEngine17setManagerVersionEi@Base 5.2.1
 _ZN23QGeoCodingManagerEngine5errorEP13QGeoCodeReplyNS0_5ErrorE7QString@Base 5.2.1
 _ZN23QGeoCodingManagerEngine7geocodeERK11QGeoAddressRK9QGeoShape@Base 5.2.1
 _ZN23QGeoCodingManagerEngine7geocodeERK7QStringiiRK9QGeoShape@Base 5.2.1
 _ZN23QGeoCodingManagerEngine8finishedEP13QGeoCodeReply@Base 5.2.1
 _ZN23QGeoCodingManagerEngine9setLocaleERK7QLocale@Base 5.2.1
 _ZN23QGeoCodingManagerEngineC1ERK4QMapI7QString8QVariantEP7QObject@Base 5.2.1
 _ZN23QGeoCodingManagerEngineC2ERK4QMapI7QString8QVariantEP7QObject@Base 5.2.1
 _ZN23QGeoCodingManagerEngineD0Ev@Base 5.2.1
 _ZN23QGeoCodingManagerEngineD1Ev@Base 5.2.1
 _ZN23QGeoCodingManagerEngineD2Ev@Base 5.2.1
 _ZN24QGeoMappingManagerEngine11initializedEv@Base 5.2.1
 _ZN24QGeoMappingManagerEngine11qt_metacallEN11QMetaObject4CallEiPPv@Base 5.2.1
 _ZN24QGeoMappingManagerEngine11qt_metacastEPKc@Base 5.2.1
 _ZN24QGeoMappingManagerEngine14setManagerNameERK7QString@Base 5.2.1
 _ZN24QGeoMappingManagerEngine16staticMetaObjectE@Base 5.2.1
 _ZN24QGeoMappingManagerEngine17engineInitializedEv@Base 5.2.1
 _ZN24QGeoMappingManagerEngine17setManagerVersionEi@Base 5.2.1
 _ZN24QGeoMappingManagerEngine18cameraCapabilitiesEv@Base 5.2.1
 _ZN24QGeoMappingManagerEngine20setSupportedMapTypesERK5QListI11QGeoMapTypeE@Base 5.2.1
 _ZN24QGeoMappingManagerEngine21setCameraCapabilitiesERK22QGeoCameraCapabilities@Base 5.2.1
 _ZN24QGeoMappingManagerEngine9setLocaleERK7QLocale@Base 5.2.1
 _ZN24QGeoMappingManagerEngineC1EP7QObject@Base 5.2.1
 _ZN24QGeoMappingManagerEngineC2EP7QObject@Base 5.2.1
 _ZN24QGeoMappingManagerEngineD0Ev@Base 5.2.1
 _ZN24QGeoMappingManagerEngineD1Ev@Base 5.2.1
 _ZN24QGeoMappingManagerEngineD2Ev@Base 5.2.1
 _ZN24QGeoRoutingManagerEngine11qt_metacallEN11QMetaObject4CallEiPPv@Base 5.2.1
 _ZN24QGeoRoutingManagerEngine11qt_metacastEPKc@Base 5.2.1
 _ZN24QGeoRoutingManagerEngine11updateRouteERK9QGeoRouteRK14QGeoCoordinate@Base 5.2.1
 _ZN24QGeoRoutingManagerEngine14setManagerNameERK7QString@Base 5.2.1
 _ZN24QGeoRoutingManagerEngine16staticMetaObjectE@Base 5.2.1
 _ZN24QGeoRoutingManagerEngine17setManagerVersionEi@Base 5.2.1
 _ZN24QGeoRoutingManagerEngine23setSupportedTravelModesE6QFlagsIN16QGeoRouteRequest10TravelModeEE@Base 5.2.1
 _ZN24QGeoRoutingManagerEngine24setSupportedFeatureTypesE6QFlagsIN16QGeoRouteRequest11FeatureTypeEE@Base 5.2.1
 _ZN24QGeoRoutingManagerEngine26setSupportedFeatureWeightsE6QFlagsIN16QGeoRouteRequest13FeatureWeightEE@Base 5.2.1
 _ZN24QGeoRoutingManagerEngine26setSupportedSegmentDetailsE6QFlagsIN16QGeoRouteRequest13SegmentDetailEE@Base 5.2.1
 _ZN24QGeoRoutingManagerEngine27setSupportedManeuverDetailsE6QFlagsIN16QGeoRouteRequest14ManeuverDetailEE@Base 5.2.1
 _ZN24QGeoRoutingManagerEngine30setSupportedRouteOptimizationsE6QFlagsIN16QGeoRouteRequest17RouteOptimizationEE@Base 5.2.1
 _ZN24QGeoRoutingManagerEngine5errorEP14QGeoRouteReplyNS0_5ErrorE7QString@Base 5.2.1
 _ZN24QGeoRoutingManagerEngine8finishedEP14QGeoRouteReply@Base 5.2.1
 _ZN24QGeoRoutingManagerEngine9setLocaleERK7QLocale@Base 5.2.1
 _ZN24QGeoRoutingManagerEngineC1ERK4QMapI7QString8QVariantEP7QObject@Base 5.2.1
 _ZN24QGeoRoutingManagerEngineC2ERK4QMapI7QString8QVariantEP7QObject@Base 5.2.1
 _ZN24QGeoRoutingManagerEngineD0Ev@Base 5.2.1
 _ZN24QGeoRoutingManagerEngineD1Ev@Base 5.2.1
 _ZN24QGeoRoutingManagerEngineD2Ev@Base 5.2.1
 _ZN26QGeoCoordinateInterpolatorC1Ev@Base 5.2.1
 _ZN26QGeoCoordinateInterpolatorC2Ev@Base 5.2.1
 _ZN26QGeoCoordinateInterpolatorD0Ev@Base 5.2.1
 _ZN26QGeoCoordinateInterpolatorD1Ev@Base 5.2.1
 _ZN26QGeoCoordinateInterpolatorD2Ev@Base 5.2.1
 _ZN26QPlaceProposedSearchResult16setSearchRequestERK19QPlaceSearchRequest@Base 5.2.1
 _ZN26QPlaceProposedSearchResultC1ERK18QPlaceSearchResult@Base 5.2.1
 _ZN26QPlaceProposedSearchResultC1Ev@Base 5.2.1
 _ZN26QPlaceProposedSearchResultC2ERK18QPlaceSearchResult@Base 5.2.1
 _ZN26QPlaceProposedSearchResultC2Ev@Base 5.2.1
 _ZN26QPlaceProposedSearchResultD0Ev@Base 5.2.1
 _ZN26QPlaceProposedSearchResultD1Ev@Base 5.2.1
 _ZN26QPlaceProposedSearchResultD2Ev@Base 5.2.1
 _ZN27QPlaceSearchSuggestionReply11qt_metacallEN11QMetaObject4CallEiPPv@Base 5.2.1
 _ZN27QPlaceSearchSuggestionReply11qt_metacastEPKc@Base 5.2.1
 _ZN27QPlaceSearchSuggestionReply14setSuggestionsERK11QStringList@Base 5.2.1
 _ZN27QPlaceSearchSuggestionReply16staticMetaObjectE@Base 5.2.1
 _ZN27QPlaceSearchSuggestionReplyC1EP7QObject@Base 5.2.1
 _ZN27QPlaceSearchSuggestionReplyC2EP7QObject@Base 5.2.1
 _ZN27QPlaceSearchSuggestionReplyD0Ev@Base 5.2.1
 _ZN27QPlaceSearchSuggestionReplyD1Ev@Base 5.2.1
 _ZN27QPlaceSearchSuggestionReplyD2Ev@Base 5.2.1
 _ZN29QGeoTiledMappingManagerEngine11qt_metacallEN11QMetaObject4CallEiPPv@Base 5.2.1
 _ZN29QGeoTiledMappingManagerEngine11qt_metacastEPKc@Base 5.2.1
 _ZN29QGeoTiledMappingManagerEngine11registerMapEP16QGeoTiledMapData@Base 5.2.1
 _ZN29QGeoTiledMappingManagerEngine11setTileSizeERK5QSize@Base 5.2.1
 _ZN29QGeoTiledMappingManagerEngine11tileFetcherEv@Base 5.2.1
 _ZN29QGeoTiledMappingManagerEngine12setCacheHintE6QFlagsINS_9CacheAreaEE@Base 5.2.1
 _ZN29QGeoTiledMappingManagerEngine13deregisterMapEP16QGeoTiledMapData@Base 5.2.1
 _ZN29QGeoTiledMappingManagerEngine14getTileTextureERK12QGeoTileSpec@Base 5.2.1
 _ZN29QGeoTiledMappingManagerEngine14setTileFetcherEP15QGeoTileFetcher@Base 5.2.1
 _ZN29QGeoTiledMappingManagerEngine15engineTileErrorERK12QGeoTileSpecRK7QString@Base 5.2.1
 _ZN29QGeoTiledMappingManagerEngine16staticMetaObjectE@Base 5.2.1
 _ZN29QGeoTiledMappingManagerEngine18engineTileFinishedERK12QGeoTileSpecRK10QByteArrayRK7QString@Base 5.2.1
 _ZN29QGeoTiledMappingManagerEngine18updateTileRequestsEP16QGeoTiledMapDataRK4QSetI12QGeoTileSpecES6_@Base 5.2.1
 _ZN29QGeoTiledMappingManagerEngine22createTileCacheWithDirERK7QString@Base 5.2.1
 _ZN29QGeoTiledMappingManagerEngine9createMapEP7QObject@Base 5.2.1
 _ZN29QGeoTiledMappingManagerEngine9tileCacheEv@Base 5.2.1
 _ZN29QGeoTiledMappingManagerEngine9tileErrorERK12QGeoTileSpecRK7QString@Base 5.2.1
 _ZN29QGeoTiledMappingManagerEngineC1EP7QObject@Base 5.2.1
 _ZN29QGeoTiledMappingManagerEngineC2EP7QObject@Base 5.2.1
 _ZN29QGeoTiledMappingManagerEngineD0Ev@Base 5.2.1
 _ZN29QGeoTiledMappingManagerEngineD1Ev@Base 5.2.1
 _ZN29QGeoTiledMappingManagerEngineD2Ev@Base 5.2.1
 _ZN6QPlace10setContentEN13QPlaceContent4TypeERK4QMapIiS0_E@Base 5.2.1
 _ZN6QPlace10setPlaceIdERK7QString@Base 5.2.1
 _ZN6QPlace10setRatingsERK13QPlaceRatings@Base 5.2.1
 _ZN6QPlace11setCategoryERK14QPlaceCategory@Base 5.2.1
 _ZN6QPlace11setLocationERK12QGeoLocation@Base 5.2.1
 _ZN6QPlace11setSupplierERK14QPlaceSupplier@Base 5.2.1
 _ZN6QPlace13insertContentEN13QPlaceContent4TypeERK4QMapIiS0_E@Base 5.2.1
 _ZN6QPlace13setCategoriesERK5QListI14QPlaceCategoryE@Base 5.2.1
 _ZN6QPlace13setVisibilityEN9QLocation10VisibilityE@Base 5.2.1
 _ZN6QPlace14setAttributionERK7QString@Base 5.2.1
 _ZN6QPlace17setContactDetailsERK7QString5QListI19QPlaceContactDetailE@Base 5.2.1
 _ZN6QPlace17setDetailsFetchedEb@Base 5.2.1
 _ZN6QPlace19appendContactDetailERK7QStringRK19QPlaceContactDetail@Base 5.2.1
 _ZN6QPlace20removeContactDetailsERK7QString@Base 5.2.1
 _ZN6QPlace20setExtendedAttributeERK7QStringRK15QPlaceAttribute@Base 5.2.1
 _ZN6QPlace20setTotalContentCountEN13QPlaceContent4TypeEi@Base 5.2.1
 _ZN6QPlace23removeExtendedAttributeERK7QString@Base 5.2.1
 _ZN6QPlace7setIconERK10QPlaceIcon@Base 5.2.1
 _ZN6QPlace7setNameERK7QString@Base 5.2.1
 _ZN6QPlaceC1ERKS_@Base 5.2.1
 _ZN6QPlaceC1Ev@Base 5.2.1
 _ZN6QPlaceC2ERKS_@Base 5.2.1
 _ZN6QPlaceC2Ev@Base 5.2.1
 _ZN6QPlaceD1Ev@Base 5.2.1
 _ZN6QPlaceD2Ev@Base 5.2.1
 _ZN6QPlaceaSERKS_@Base 5.2.1
 _ZN7QGeoMap11qt_metacallEN11QMetaObject4CallEiPPv@Base 5.2.1
 _ZN7QGeoMap11qt_metacastEPKc@Base 5.2.1
 _ZN7QGeoMap12pluginStringEv@Base 5.2.1
 _ZN7QGeoMap13cameraStoppedEv@Base 5.2.1
 _ZN7QGeoMap13mapControllerEv@Base 5.2.1
 _ZN7QGeoMap13setCameraDataERK14QGeoCameraData@Base 5.2.1
 _ZN7QGeoMap14updateRequiredEv@Base 5.2.1
 _ZN7QGeoMap16setActiveMapTypeE11QGeoMapType@Base 5.2.1
 _ZN7QGeoMap16staticMetaObjectE@Base 5.2.1
 _ZN7QGeoMap17cameraDataChangedERK14QGeoCameraData@Base 5.2.1
 _ZN7QGeoMap17copyrightsChangedERK6QImageRK6QPoint@Base 5.2.1
 _ZN7QGeoMap20activeMapTypeChangedEv@Base 5.2.1
 _ZN7QGeoMap6resizeEii@Base 5.2.1
 _ZN7QGeoMap6updateEv@Base 5.2.1
 _ZN7QGeoMap7paintGLEP10QGLPainter@Base 5.2.1
 _ZN7QGeoMapC1EP11QGeoMapDataP7QObject@Base 5.2.1
 _ZN7QGeoMapC2EP11QGeoMapDataP7QObject@Base 5.2.1
 _ZN7QGeoMapD0Ev@Base 5.2.1
 _ZN7QGeoMapD1Ev@Base 5.2.1
 _ZN7QGeoMapD2Ev@Base 5.2.1
 _ZN9QGeoRoute10setRequestERK16QGeoRouteRequest@Base 5.2.1
 _ZN9QGeoRoute10setRouteIdERK7QString@Base 5.2.1
 _ZN9QGeoRoute11setDistanceEd@Base 5.2.1
 _ZN9QGeoRoute13setTravelModeEN16QGeoRouteRequest10TravelModeE@Base 5.2.1
 _ZN9QGeoRoute13setTravelTimeEi@Base 5.2.1
 _ZN9QGeoRoute20setFirstRouteSegmentERK16QGeoRouteSegment@Base 5.2.1
 _ZN9QGeoRoute7setPathERK5QListI14QGeoCoordinateE@Base 5.2.1
 _ZN9QGeoRoute9setBoundsERK13QGeoRectangle@Base 5.2.1
 _ZN9QGeoRouteC1ERKS_@Base 5.2.1
 _ZN9QGeoRouteC1Ev@Base 5.2.1
 _ZN9QGeoRouteC2ERKS_@Base 5.2.1
 _ZN9QGeoRouteC2Ev@Base 5.2.1
 _ZN9QGeoRouteD1Ev@Base 5.2.1
 _ZN9QGeoRouteD2Ev@Base 5.2.1
 _ZN9QGeoRouteaSERKS_@Base 5.2.1
 _ZNK10QPlaceIcon10parametersEv@Base 5.2.1
 _ZNK10QPlaceIcon3urlERK5QSize@Base 5.2.1
 _ZNK10QPlaceIcon7isEmptyEv@Base 5.2.1
 _ZNK10QPlaceIcon7managerEv@Base 5.2.1
 _ZNK10QPlaceIconeqERKS_@Base 5.2.1
 _ZNK10QPlaceUser4nameEv@Base 5.2.1
 _ZNK10QPlaceUser6userIdEv@Base 5.2.1
 _ZNK10QPlaceUsereqERKS_@Base 5.2.1
 _ZNK11QGeoMapData10cameraDataEv@Base 5.2.1
 _ZNK11QGeoMapData10metaObjectEv@Base 5.2.1
 _ZNK11QGeoMapData13activeMapTypeEv@Base 5.2.1
 _ZNK11QGeoMapData5widthEv@Base 5.2.1
 _ZNK11QGeoMapData6heightEv@Base 5.2.1
 _ZNK11QGeoMapData8glCameraEv@Base 5.2.1
 _ZNK11QGeoMapType11descriptionEv@Base 5.2.1
 _ZNK11QGeoMapType4nameEv@Base 5.2.1
 _ZNK11QGeoMapType5mapIdEv@Base 5.2.1
 _ZNK11QGeoMapType5styleEv@Base 5.2.1
 _ZNK11QGeoMapType6mobileEv@Base 5.2.1
 _ZNK11QGeoMapTypeeqERKS_@Base 5.2.1
 _ZNK11QGeoMapTypeneERKS_@Base 5.2.1
 _ZNK11QPlaceImage3urlEv@Base 5.2.1
 _ZNK11QPlaceImage7imageIdEv@Base 5.2.1
 _ZNK11QPlaceImage8mimeTypeEv@Base 5.2.1
 _ZNK11QPlaceReply10isFinishedEv@Base 5.2.1
 _ZNK11QPlaceReply10metaObjectEv@Base 5.2.1
 _ZNK11QPlaceReply11errorStringEv@Base 5.2.1
 _ZNK11QPlaceReply4typeEv@Base 5.2.1
 _ZNK11QPlaceReply5errorEv@Base 5.2.1
 _ZNK12QGeoManeuver15instructionTextEv@Base 5.2.1
 _ZNK12QGeoManeuver21timeToNextInstructionEv@Base 5.2.1
 _ZNK12QGeoManeuver25distanceToNextInstructionEv@Base 5.2.1
 _ZNK12QGeoManeuver7isValidEv@Base 5.2.1
 _ZNK12QGeoManeuver8positionEv@Base 5.2.1
 _ZNK12QGeoManeuver8waypointEv@Base 5.2.1
 _ZNK12QGeoManeuver9directionEv@Base 5.2.1
 _ZNK12QGeoManeuvereqERKS_@Base 5.2.1
 _ZNK12QGeoManeuverneERKS_@Base 5.2.1
 _ZNK12QGeoMapScene10metaObjectEv@Base 5.2.1
 _ZNK12QGeoMapScene12verticalLockEv@Base 5.2.1
 _ZNK12QGeoMapScene24mercatorToScreenPositionERK15QDoubleVector2D@Base 5.2.1
 _ZNK12QGeoMapScene24screenPositionToMercatorERK7QPointF@Base 5.2.1
 _ZNK12QGeoMapScene6cameraEv@Base 5.2.1
 _ZNK12QGeoMapScene9sceneNodeEv@Base 5.2.1
 _ZNK12QGeoTileSpec1xEv@Base 5.2.1
 _ZNK12QGeoTileSpec1yEv@Base 5.2.1
 _ZNK12QGeoTileSpec4zoomEv@Base 5.2.1
 _ZNK12QGeoTileSpec5mapIdEv@Base 5.2.1
 _ZNK12QGeoTileSpec6pluginEv@Base 5.2.1
 _ZNK12QGeoTileSpeceqERKS_@Base 5.2.1
 _ZNK12QGeoTileSpecltERKS_@Base 5.2.1
 _ZNK12QPlaceResult11isSponsoredEv@Base 5.2.1
 _ZNK12QPlaceResult5placeEv@Base 5.2.1
 _ZNK12QPlaceResult8distanceEv@Base 5.2.1
 _ZNK12QPlaceReview4textEv@Base 5.2.1
 _ZNK12QPlaceReview5titleEv@Base 5.2.1
 _ZNK12QPlaceReview6ratingEv@Base 5.2.1
 _ZNK12QPlaceReview8dateTimeEv@Base 5.2.1
 _ZNK12QPlaceReview8languageEv@Base 5.2.1
 _ZNK12QPlaceReview8reviewIdEv@Base 5.2.1
 _ZNK13QGeoCodeReply10isFinishedEv@Base 5.2.1
 _ZNK13QGeoCodeReply10metaObjectEv@Base 5.2.1
 _ZNK13QGeoCodeReply11errorStringEv@Base 5.2.1
 _ZNK13QGeoCodeReply5errorEv@Base 5.2.1
 _ZNK13QGeoCodeReply5limitEv@Base 5.2.1
 _ZNK13QGeoCodeReply6offsetEv@Base 5.2.1
 _ZNK13QGeoCodeReply8viewportEv@Base 5.2.1
 _ZNK13QGeoCodeReply9locationsEv@Base 5.2.1
 _ZNK13QGeoTileCache10metaObjectEv@Base 5.2.1
 _ZNK13QGeoTileCache11memoryUsageEv@Base 5.2.1
 _ZNK13QGeoTileCache12maxDiskUsageEv@Base 5.2.1
 _ZNK13QGeoTileCache12textureUsageEv@Base 5.2.1
 _ZNK13QGeoTileCache14maxMemoryUsageEv@Base 5.2.1
 _ZNK13QGeoTileCache15maxTextureUsageEv@Base 5.2.1
 _ZNK13QGeoTileCache15minTextureUsageEv@Base 5.2.1
 _ZNK13QGeoTileCache9diskUsageEv@Base 5.2.1
 _ZNK13QPlaceContent11attributionEv@Base 5.2.1
 _ZNK13QPlaceContent4typeEv@Base 5.2.1
 _ZNK13QPlaceContent4userEv@Base 5.2.1
 _ZNK13QPlaceContent8supplierEv@Base 5.2.1
 _ZNK13QPlaceContenteqERKS_@Base 5.2.1
 _ZNK13QPlaceContentneERKS_@Base 5.2.1
 _ZNK13QPlaceIdReply10metaObjectEv@Base 5.2.1
 _ZNK13QPlaceIdReply13operationTypeEv@Base 5.2.1
 _ZNK13QPlaceIdReply2idEv@Base 5.2.1
 _ZNK13QPlaceIdReply4typeEv@Base 5.2.1
 _ZNK13QPlaceManager10metaObjectEv@Base 5.2.1
 _ZNK13QPlaceManager11managerNameEv@Base 5.2.1
 _ZNK13QPlaceManager14managerVersionEv@Base 5.2.1
 _ZNK13QPlaceManager14matchingPlacesERK18QPlaceMatchRequest@Base 5.2.1
 _ZNK13QPlaceManager15childCategoriesERK7QString@Base 5.2.1
 _ZNK13QPlaceManager15getPlaceContentERK7QStringRK20QPlaceContentRequest@Base 5.2.1
 _ZNK13QPlaceManager15getPlaceDetailsERK7QString@Base 5.2.1
 _ZNK13QPlaceManager16childCategoryIdsERK7QString@Base 5.2.1
 _ZNK13QPlaceManager16parentCategoryIdERK7QString@Base 5.2.1
 _ZNK13QPlaceManager17searchSuggestionsERK19QPlaceSearchRequest@Base 5.2.1
 _ZNK13QPlaceManager6searchERK19QPlaceSearchRequest@Base 5.2.1
 _ZNK13QPlaceManager7localesEv@Base 5.2.1
 _ZNK13QPlaceManager8categoryERK7QString@Base 5.2.1
 _ZNK13QPlaceRatings5countEv@Base 5.2.1
 _ZNK13QPlaceRatings7averageEv@Base 5.2.1
 _ZNK13QPlaceRatings7isEmptyEv@Base 5.2.1
 _ZNK13QPlaceRatings7maximumEv@Base 5.2.1
 _ZNK13QPlaceRatingseqERKS_@Base 5.2.1
 _ZNK14QGeoCameraData22coordinateInterpolatorEv@Base 5.2.1
 _ZNK14QGeoCameraData4rollEv@Base 5.2.1
 _ZNK14QGeoCameraData4tiltEv@Base 5.2.1
 _ZNK14QGeoCameraData6centerEv@Base 5.2.1
 _ZNK14QGeoCameraData7bearingEv@Base 5.2.1
 _ZNK14QGeoCameraData9zoomLevelEv@Base 5.2.1
 _ZNK14QGeoCameraDataeqERKS_@Base 5.2.1
 _ZNK14QGeoCameraDataneERKS_@Base 5.2.1
 _ZNK14QGeoRouteReply10isFinishedEv@Base 5.2.1
 _ZNK14QGeoRouteReply10metaObjectEv@Base 5.2.1
 _ZNK14QGeoRouteReply11errorStringEv@Base 5.2.1
 _ZNK14QGeoRouteReply5errorEv@Base 5.2.1
 _ZNK14QGeoRouteReply6routesEv@Base 5.2.1
 _ZNK14QGeoRouteReply7requestEv@Base 5.2.1
 _ZNK14QPlaceCategory10categoryIdEv@Base 5.2.1
 _ZNK14QPlaceCategory10visibilityEv@Base 5.2.1
 _ZNK14QPlaceCategory4iconEv@Base 5.2.1
 _ZNK14QPlaceCategory4nameEv@Base 5.2.1
 _ZNK14QPlaceCategory7isEmptyEv@Base 5.2.1
 _ZNK14QPlaceCategoryeqERKS_@Base 5.2.1
 _ZNK14QPlaceSupplier10supplierIdEv@Base 5.2.1
 _ZNK14QPlaceSupplier3urlEv@Base 5.2.1
 _ZNK14QPlaceSupplier4iconEv@Base 5.2.1
 _ZNK14QPlaceSupplier4nameEv@Base 5.2.1
 _ZNK14QPlaceSupplier7isEmptyEv@Base 5.2.1
 _ZNK14QPlaceSuppliereqERKS_@Base 5.2.1
 _ZNK15QGeoCameraTiles5tilesEv@Base 5.2.1
 _ZNK15QGeoCameraTiles8tileSizeEv@Base 5.2.1
 _ZNK15QGeoTileFetcher10metaObjectEv@Base 5.2.1
 _ZNK15QPlaceAttribute4textEv@Base 5.2.1
 _ZNK15QPlaceAttribute5labelEv@Base 5.2.1
 _ZNK15QPlaceAttribute7isEmptyEv@Base 5.2.1
 _ZNK15QPlaceAttributeeqERKS_@Base 5.2.1
 _ZNK15QPlaceAttributeneERKS_@Base 5.2.1
 _ZNK15QPlaceEditorial4textEv@Base 5.2.1
 _ZNK15QPlaceEditorial5titleEv@Base 5.2.1
 _ZNK15QPlaceEditorial8languageEv@Base 5.2.1
 _ZNK16QGeoRouteRequest11travelModesEv@Base 5.2.1
 _ZNK16QGeoRouteRequest12excludeAreasEv@Base 5.2.1
 _ZNK16QGeoRouteRequest12featureTypesEv@Base 5.2.1
 _ZNK16QGeoRouteRequest13featureWeightENS_11FeatureTypeE@Base 5.2.1
 _ZNK16QGeoRouteRequest13segmentDetailEv@Base 5.2.1
 _ZNK16QGeoRouteRequest14maneuverDetailEv@Base 5.2.1
 _ZNK16QGeoRouteRequest17routeOptimizationEv@Base 5.2.1
 _ZNK16QGeoRouteRequest23numberAlternativeRoutesEv@Base 5.2.1
 _ZNK16QGeoRouteRequest9waypointsEv@Base 5.2.1
 _ZNK16QGeoRouteRequesteqERKS_@Base 5.2.1
 _ZNK16QGeoRouteRequestneERKS_@Base 5.2.1
 _ZNK16QGeoRouteSegment10travelTimeEv@Base 5.2.1
 _ZNK16QGeoRouteSegment16nextRouteSegmentEv@Base 5.2.1
 _ZNK16QGeoRouteSegment4pathEv@Base 5.2.1
 _ZNK16QGeoRouteSegment7isValidEv@Base 5.2.1
 _ZNK16QGeoRouteSegment8distanceEv@Base 5.2.1
 _ZNK16QGeoRouteSegment8maneuverEv@Base 5.2.1
 _ZNK16QGeoRouteSegmenteqERKS_@Base 5.2.1
 _ZNK16QGeoRouteSegmentneERKS_@Base 5.2.1
 _ZNK16QGeoTiledMapData10metaObjectEv@Base 5.2.1
 _ZNK16QGeoTiledMapData26coordinateToScreenPositionERK14QGeoCoordinateb@Base 5.2.1
 _ZNK16QGeoTiledMapData26screenPositionToCoordinateERK7QPointFb@Base 5.2.1
 _ZNK16QPlaceMatchReply10metaObjectEv@Base 5.2.1
 _ZNK16QPlaceMatchReply4typeEv@Base 5.2.1
 _ZNK16QPlaceMatchReply6placesEv@Base 5.2.1
 _ZNK16QPlaceMatchReply7requestEv@Base 5.2.1
 _ZNK17QGeoCodingManager10metaObjectEv@Base 5.2.1
 _ZNK17QGeoCodingManager11managerNameEv@Base 5.2.1
 _ZNK17QGeoCodingManager14managerVersionEv@Base 5.2.1
 _ZNK17QGeoCodingManager6localeEv@Base 5.2.1
 _ZNK17QGeoMapController10metaObjectEv@Base 5.2.1
 _ZNK17QGeoMapController4rollEv@Base 5.2.1
 _ZNK17QGeoMapController4tiltEv@Base 5.2.1
 _ZNK17QGeoMapController4zoomEv@Base 5.2.1
 _ZNK17QGeoMapController6centerEv@Base 5.2.1
 _ZNK17QGeoMapController7bearingEv@Base 5.2.1
 _ZNK17QGeoTiledMapReply10isFinishedEv@Base 5.2.1
 _ZNK17QGeoTiledMapReply10metaObjectEv@Base 5.2.1
 _ZNK17QGeoTiledMapReply11errorStringEv@Base 5.2.1
 _ZNK17QGeoTiledMapReply12mapImageDataEv@Base 5.2.1
 _ZNK17QGeoTiledMapReply14mapImageFormatEv@Base 5.2.1
 _ZNK17QGeoTiledMapReply5errorEv@Base 5.2.1
 _ZNK17QGeoTiledMapReply8isCachedEv@Base 5.2.1
 _ZNK17QGeoTiledMapReply8tileSpecEv@Base 5.2.1
 _ZNK17QPlaceSearchReply10metaObjectEv@Base 5.2.1
 _ZNK17QPlaceSearchReply4typeEv@Base 5.2.1
 _ZNK17QPlaceSearchReply7requestEv@Base 5.2.1
 _ZNK17QPlaceSearchReply7resultsEv@Base 5.2.1
 _ZNK18QGeoMappingManager10metaObjectEv@Base 5.2.1
 _ZNK18QGeoMappingManager11managerNameEv@Base 5.2.1
 _ZNK18QGeoMappingManager13isInitializedEv@Base 5.2.1
 _ZNK18QGeoMappingManager14managerVersionEv@Base 5.2.1
 _ZNK18QGeoMappingManager17supportedMapTypesEv@Base 5.2.1
 _ZNK18QGeoMappingManager18cameraCapabilitiesEv@Base 5.2.1
 _ZNK18QGeoMappingManager6localeEv@Base 5.2.1
 _ZNK18QGeoRoutingManager10metaObjectEv@Base 5.2.1
 _ZNK18QGeoRoutingManager11managerNameEv@Base 5.2.1
 _ZNK18QGeoRoutingManager14managerVersionEv@Base 5.2.1
 _ZNK18QGeoRoutingManager20supportedTravelModesEv@Base 5.2.1
 _ZNK18QGeoRoutingManager21supportedFeatureTypesEv@Base 5.2.1
 _ZNK18QGeoRoutingManager23supportedFeatureWeightsEv@Base 5.2.1
 _ZNK18QGeoRoutingManager23supportedSegmentDetailsEv@Base 5.2.1
 _ZNK18QGeoRoutingManager24supportedManeuverDetailsEv@Base 5.2.1
 _ZNK18QGeoRoutingManager27supportedRouteOptimizationsEv@Base 5.2.1
 _ZNK18QGeoRoutingManager6localeEv@Base 5.2.1
 _ZNK18QPlaceContentReply10metaObjectEv@Base 5.2.1
 _ZNK18QPlaceContentReply10totalCountEv@Base 5.2.1
 _ZNK18QPlaceContentReply4typeEv@Base 5.2.1
 _ZNK18QPlaceContentReply7contentEv@Base 5.2.1
 _ZNK18QPlaceContentReply7requestEv@Base 5.2.1
 _ZNK18QPlaceDetailsReply10metaObjectEv@Base 5.2.1
 _ZNK18QPlaceDetailsReply4typeEv@Base 5.2.1
 _ZNK18QPlaceDetailsReply5placeEv@Base 5.2.1
 _ZNK18QPlaceMatchRequest10parametersEv@Base 5.2.1
 _ZNK18QPlaceMatchRequest6placesEv@Base 5.2.1
 _ZNK18QPlaceMatchRequesteqERKS_@Base 5.2.1
 _ZNK18QPlaceMatchRequestneERKS_@Base 5.2.1
 _ZNK18QPlaceSearchResult4iconEv@Base 5.2.1
 _ZNK18QPlaceSearchResult4typeEv@Base 5.2.1
 _ZNK18QPlaceSearchResult5titleEv@Base 5.2.1
 _ZNK18QPlaceSearchResulteqERKS_@Base 5.2.1
 _ZNK19QGeoServiceProvider10metaObjectEv@Base 5.2.1
 _ZNK19QGeoServiceProvider11errorStringEv@Base 5.2.1
 _ZNK19QGeoServiceProvider12placeManagerEv@Base 5.2.1
 _ZNK19QGeoServiceProvider14mappingManagerEv@Base 5.2.1
 _ZNK19QGeoServiceProvider14placesFeaturesEv@Base 5.2.1
 _ZNK19QGeoServiceProvider14routingManagerEv@Base 5.2.1
 _ZNK19QGeoServiceProvider15mappingFeaturesEv@Base 5.2.1
 _ZNK19QGeoServiceProvider15routingFeaturesEv@Base 5.2.1
 _ZNK19QGeoServiceProvider16geocodingManagerEv@Base 5.2.1
 _ZNK19QGeoServiceProvider17geocodingFeaturesEv@Base 5.2.1
 _ZNK19QGeoServiceProvider5errorEv@Base 5.2.1
 _ZNK19QPlaceContactDetail5labelEv@Base 5.2.1
 _ZNK19QPlaceContactDetail5valueEv@Base 5.2.1
 _ZNK19QPlaceContactDetaileqERKS_@Base 5.2.1
 _ZNK19QPlaceContactDetailneERKS_@Base 5.2.1
 _ZNK19QPlaceManagerEngine10metaObjectEv@Base 5.2.1
 _ZNK19QPlaceManagerEngine11managerNameEv@Base 5.2.1
 _ZNK19QPlaceManagerEngine14managerVersionEv@Base 5.2.1
 _ZNK19QPlaceManagerEngine15childCategoriesERK7QString@Base 5.2.1
 _ZNK19QPlaceManagerEngine15compatiblePlaceERK6QPlace@Base 5.2.1
 _ZNK19QPlaceManagerEngine16childCategoryIdsERK7QString@Base 5.2.1
 _ZNK19QPlaceManagerEngine16constructIconUrlERK10QPlaceIconRK5QSize@Base 5.2.1
 _ZNK19QPlaceManagerEngine16parentCategoryIdERK7QString@Base 5.2.1
 _ZNK19QPlaceManagerEngine7localesEv@Base 5.2.1
 _ZNK19QPlaceManagerEngine7managerEv@Base 5.2.1
 _ZNK19QPlaceManagerEngine8categoryERK7QString@Base 5.2.1
 _ZNK19QPlaceSearchRequest10categoriesEv@Base 5.2.1
 _ZNK19QPlaceSearchRequest10searchAreaEv@Base 5.2.1
 _ZNK19QPlaceSearchRequest10searchTermEv@Base 5.2.1
 _ZNK19QPlaceSearchRequest13relevanceHintEv@Base 5.2.1
 _ZNK19QPlaceSearchRequest13searchContextEv@Base 5.2.1
 _ZNK19QPlaceSearchRequest15visibilityScopeEv@Base 5.2.1
 _ZNK19QPlaceSearchRequest16recommendationIdEv@Base 5.2.1
 _ZNK19QPlaceSearchRequest5limitEv@Base 5.2.1
 _ZNK19QPlaceSearchRequest6offsetEv@Base 5.2.1
 _ZNK19QPlaceSearchRequesteqERKS_@Base 5.2.1
 _ZNK19QPlaceSearchRequestneERKS_@Base 5.2.1
 _ZNK20AnimatableCoordinate10coordinateEv@Base 5.2.1
 _ZNK20AnimatableCoordinate12interpolatorEv@Base 5.2.1
 _ZNK20QPlaceContentRequest11contentTypeEv@Base 5.2.1
 _ZNK20QPlaceContentRequest5limitEv@Base 5.2.1
 _ZNK20QPlaceContentRequest6offsetEv@Base 5.2.1
 _ZNK20QPlaceContentRequesteqERKS_@Base 5.2.1
 _ZNK20QPlaceContentRequestneERKS_@Base 5.2.1
 _ZNK22QGeoCameraCapabilities11maximumTiltEv@Base 5.2.1
 _ZNK22QGeoCameraCapabilities11minimumTiltEv@Base 5.2.1
 _ZNK22QGeoCameraCapabilities15supportsBearingEv@Base 5.2.1
 _ZNK22QGeoCameraCapabilities15supportsRollingEv@Base 5.2.1
 _ZNK22QGeoCameraCapabilities15supportsTiltingEv@Base 5.2.1
 _ZNK22QGeoCameraCapabilities16maximumZoomLevelEv@Base 5.2.1
 _ZNK22QGeoCameraCapabilities16minimumZoomLevelEv@Base 5.2.1
 _ZNK22QGeoCameraCapabilities7isValidEv@Base 5.2.1
 _ZNK23QGeoCodingManagerEngine10metaObjectEv@Base 5.2.1
 _ZNK23QGeoCodingManagerEngine11managerNameEv@Base 5.2.1
 _ZNK23QGeoCodingManagerEngine14managerVersionEv@Base 5.2.1
 _ZNK23QGeoCodingManagerEngine6localeEv@Base 5.2.1
 _ZNK24QGeoMappingManagerEngine10metaObjectEv@Base 5.2.1
 _ZNK24QGeoMappingManagerEngine11managerNameEv@Base 5.2.1
 _ZNK24QGeoMappingManagerEngine13isInitializedEv@Base 5.2.1
 _ZNK24QGeoMappingManagerEngine14managerVersionEv@Base 5.2.1
 _ZNK24QGeoMappingManagerEngine17supportedMapTypesEv@Base 5.2.1
 _ZNK24QGeoMappingManagerEngine6localeEv@Base 5.2.1
 _ZNK24QGeoRoutingManagerEngine10metaObjectEv@Base 5.2.1
 _ZNK24QGeoRoutingManagerEngine11managerNameEv@Base 5.2.1
 _ZNK24QGeoRoutingManagerEngine14managerVersionEv@Base 5.2.1
 _ZNK24QGeoRoutingManagerEngine20supportedTravelModesEv@Base 5.2.1
 _ZNK24QGeoRoutingManagerEngine21supportedFeatureTypesEv@Base 5.2.1
 _ZNK24QGeoRoutingManagerEngine23supportedFeatureWeightsEv@Base 5.2.1
 _ZNK24QGeoRoutingManagerEngine23supportedSegmentDetailsEv@Base 5.2.1
 _ZNK24QGeoRoutingManagerEngine24supportedManeuverDetailsEv@Base 5.2.1
 _ZNK24QGeoRoutingManagerEngine27supportedRouteOptimizationsEv@Base 5.2.1
 _ZNK24QGeoRoutingManagerEngine6localeEv@Base 5.2.1
 _ZNK26QGeoServiceProviderFactory24createPlaceManagerEngineERK4QMapI7QString8QVariantEPN19QGeoServiceProvider5ErrorEPS1_@Base 5.2.1
 _ZNK26QGeoServiceProviderFactory26createMappingManagerEngineERK4QMapI7QString8QVariantEPN19QGeoServiceProvider5ErrorEPS1_@Base 5.2.1
 _ZNK26QGeoServiceProviderFactory26createRoutingManagerEngineERK4QMapI7QString8QVariantEPN19QGeoServiceProvider5ErrorEPS1_@Base 5.2.1
 _ZNK26QGeoServiceProviderFactory28createGeocodingManagerEngineERK4QMapI7QString8QVariantEPN19QGeoServiceProvider5ErrorEPS1_@Base 5.2.1
 _ZNK26QPlaceProposedSearchResult13searchRequestEv@Base 5.2.1
 _ZNK27QPlaceSearchSuggestionReply10metaObjectEv@Base 5.2.1
 _ZNK27QPlaceSearchSuggestionReply11suggestionsEv@Base 5.2.1
 _ZNK27QPlaceSearchSuggestionReply4typeEv@Base 5.2.1
 _ZNK29QGeoTiledMappingManagerEngine10metaObjectEv@Base 5.2.1
 _ZNK29QGeoTiledMappingManagerEngine8tileSizeEv@Base 5.2.1
 _ZNK29QGeoTiledMappingManagerEngine9cacheHintEv@Base 5.2.1
 _ZNK6QPlace10categoriesEv@Base 5.2.1
 _ZNK6QPlace10primaryFaxEv@Base 5.2.1
 _ZNK6QPlace10visibilityEv@Base 5.2.1
 _ZNK6QPlace11attributionEv@Base 5.2.1
 _ZNK6QPlace12contactTypesEv@Base 5.2.1
 _ZNK6QPlace12primaryEmailEv@Base 5.2.1
 _ZNK6QPlace12primaryPhoneEv@Base 5.2.1
 _ZNK6QPlace14contactDetailsERK7QString@Base 5.2.1
 _ZNK6QPlace14detailsFetchedEv@Base 5.2.1
 _ZNK6QPlace14primaryWebsiteEv@Base 5.2.1
 _ZNK6QPlace17extendedAttributeERK7QString@Base 5.2.1
 _ZNK6QPlace17totalContentCountEN13QPlaceContent4TypeE@Base 5.2.1
 _ZNK6QPlace22extendedAttributeTypesEv@Base 5.2.1
 _ZNK6QPlace4iconEv@Base 5.2.1
 _ZNK6QPlace4nameEv@Base 5.2.1
 _ZNK6QPlace7contentEN13QPlaceContent4TypeE@Base 5.2.1
 _ZNK6QPlace7isEmptyEv@Base 5.2.1
 _ZNK6QPlace7placeIdEv@Base 5.2.1
 _ZNK6QPlace7ratingsEv@Base 5.2.1
 _ZNK6QPlace8locationEv@Base 5.2.1
 _ZNK6QPlace8supplierEv@Base 5.2.1
 _ZNK6QPlaceeqERKS_@Base 5.2.1
 _ZNK6QPlaceneERKS_@Base 5.2.1
 _ZNK7QGeoMap10cameraDataEv@Base 5.2.1
 _ZNK7QGeoMap10metaObjectEv@Base 5.2.1
 _ZNK7QGeoMap13activeMapTypeEv@Base 5.2.1
 _ZNK7QGeoMap18cameraCapabilitiesEv@Base 5.2.1
 _ZNK7QGeoMap26coordinateToScreenPositionERK14QGeoCoordinateb@Base 5.2.1
 _ZNK7QGeoMap26screenPositionToCoordinateERK7QPointFb@Base 5.2.1
 _ZNK7QGeoMap5widthEv@Base 5.2.1
 _ZNK7QGeoMap6heightEv@Base 5.2.1
 _ZNK7QGeoMap8glCameraEv@Base 5.2.1
 _ZNK9QGeoRoute10travelModeEv@Base 5.2.1
 _ZNK9QGeoRoute10travelTimeEv@Base 5.2.1
 _ZNK9QGeoRoute17firstRouteSegmentEv@Base 5.2.1
 _ZNK9QGeoRoute4pathEv@Base 5.2.1
 _ZNK9QGeoRoute6boundsEv@Base 5.2.1
 _ZNK9QGeoRoute7requestEv@Base 5.2.1
 _ZNK9QGeoRoute7routeIdEv@Base 5.2.1
 _ZNK9QGeoRoute8distanceEv@Base 5.2.1
 _ZNK9QGeoRouteeqERKS_@Base 5.2.1
 _ZNK9QGeoRouteneERKS_@Base 5.2.1
 _ZTI11QGeoMapData@Base 5.2.1
 _ZTI11QPlaceImage@Base 5.2.1
 _ZTI11QPlaceReply@Base 5.2.1
 _ZTI11QSharedData@Base 5.2.1
 _ZTI12QGeoMapScene@Base 5.2.1
 _ZTI12QPlaceResult@Base 5.2.1
 _ZTI12QPlaceReview@Base 5.2.1
 _ZTI13QGeoCodeReply@Base 5.2.1
 _ZTI13QGeoTileCache@Base 5.2.1
 _ZTI13QPlaceContent@Base 5.2.1
 _ZTI13QPlaceIdReply@Base 5.2.1
 _ZTI13QPlaceManager@Base 5.2.1
 _ZTI14QGeoRouteReply@Base 5.2.1
 _ZTI14QPlaceCategory@Base 5.2.1
 _ZTI15QGeoTileFetcher@Base 5.2.1
 _ZTI15QPlaceAttribute@Base 5.2.1
 _ZTI15QPlaceEditorial@Base 5.2.1
 _ZTI16QGeoTiledMapData@Base 5.2.1
 _ZTI16QPlaceMatchReply@Base 5.2.1
 _ZTI17QGeoCodingManager@Base 5.2.1
 _ZTI17QGeoMapController@Base 5.2.1
 _ZTI17QGeoTiledMapReply@Base 5.2.1
 _ZTI17QPlaceSearchReply@Base 5.2.1
 _ZTI18QGeoMappingManager@Base 5.2.1
 _ZTI18QGeoRoutingManager@Base 5.2.1
 _ZTI18QPlaceContentReply@Base 5.2.1
 _ZTI18QPlaceDetailsReply@Base 5.2.1
 _ZTI18QPlaceSearchResult@Base 5.2.1
 _ZTI19QGeoServiceProvider@Base 5.2.1
 _ZTI19QPlaceContactDetail@Base 5.2.1
 _ZTI19QPlaceManagerEngine@Base 5.2.1
 _ZTI23QGeoCodingManagerEngine@Base 5.2.1
 _ZTI24QGeoMappingManagerEngine@Base 5.2.1
 _ZTI24QGeoRoutingManagerEngine@Base 5.2.1
 _ZTI26QGeoCoordinateInterpolator@Base 5.2.1
 _ZTI26QGeoServiceProviderFactory@Base 5.2.1
 _ZTI26QPlaceProposedSearchResult@Base 5.2.1
 _ZTI27QPlaceSearchSuggestionReply@Base 5.2.1
 _ZTI29QGeoTiledMappingManagerEngine@Base 5.2.1
 _ZTI7QGeoMap@Base 5.2.1
 _ZTS11QGeoMapData@Base 5.2.1
 _ZTS11QPlaceImage@Base 5.2.1
 _ZTS11QPlaceReply@Base 5.2.1
 _ZTS11QSharedData@Base 5.2.1
 _ZTS12QGeoMapScene@Base 5.2.1
 _ZTS12QPlaceResult@Base 5.2.1
 _ZTS12QPlaceReview@Base 5.2.1
 _ZTS13QGeoCodeReply@Base 5.2.1
 _ZTS13QGeoTileCache@Base 5.2.1
 _ZTS13QPlaceContent@Base 5.2.1
 _ZTS13QPlaceIdReply@Base 5.2.1
 _ZTS13QPlaceManager@Base 5.2.1
 _ZTS14QGeoRouteReply@Base 5.2.1
 _ZTS14QPlaceCategory@Base 5.2.1
 _ZTS15QGeoTileFetcher@Base 5.2.1
 _ZTS15QPlaceAttribute@Base 5.2.1
 _ZTS15QPlaceEditorial@Base 5.2.1
 _ZTS16QGeoTiledMapData@Base 5.2.1
 _ZTS16QPlaceMatchReply@Base 5.2.1
 _ZTS17QGeoCodingManager@Base 5.2.1
 _ZTS17QGeoMapController@Base 5.2.1
 _ZTS17QGeoTiledMapReply@Base 5.2.1
 _ZTS17QPlaceSearchReply@Base 5.2.1
 _ZTS18QGeoMappingManager@Base 5.2.1
 _ZTS18QGeoRoutingManager@Base 5.2.1
 _ZTS18QPlaceContentReply@Base 5.2.1
 _ZTS18QPlaceDetailsReply@Base 5.2.1
 _ZTS18QPlaceSearchResult@Base 5.2.1
 _ZTS19QGeoServiceProvider@Base 5.2.1
 _ZTS19QPlaceContactDetail@Base 5.2.1
 _ZTS19QPlaceManagerEngine@Base 5.2.1
 _ZTS23QGeoCodingManagerEngine@Base 5.2.1
 _ZTS24QGeoMappingManagerEngine@Base 5.2.1
 _ZTS24QGeoRoutingManagerEngine@Base 5.2.1
 _ZTS26QGeoCoordinateInterpolator@Base 5.2.1
 _ZTS26QGeoServiceProviderFactory@Base 5.2.1
 _ZTS26QPlaceProposedSearchResult@Base 5.2.1
 _ZTS27QPlaceSearchSuggestionReply@Base 5.2.1
 _ZTS29QGeoTiledMappingManagerEngine@Base 5.2.1
 _ZTS7QGeoMap@Base 5.2.1
 _ZTV11QGeoMapData@Base 5.2.1
 _ZTV11QPlaceImage@Base 5.2.1
 _ZTV11QPlaceReply@Base 5.2.1
 _ZTV12QGeoMapScene@Base 5.2.1
 _ZTV12QPlaceResult@Base 5.2.1
 _ZTV12QPlaceReview@Base 5.2.1
 _ZTV13QGeoCodeReply@Base 5.2.1
 _ZTV13QGeoTileCache@Base 5.2.1
 _ZTV13QPlaceContent@Base 5.2.1
 _ZTV13QPlaceIdReply@Base 5.2.1
 _ZTV13QPlaceManager@Base 5.2.1
 _ZTV14QGeoRouteReply@Base 5.2.1
 _ZTV14QPlaceCategory@Base 5.2.1
 _ZTV15QGeoTileFetcher@Base 5.2.1
 _ZTV15QPlaceAttribute@Base 5.2.1
 _ZTV15QPlaceEditorial@Base 5.2.1
 _ZTV16QGeoTiledMapData@Base 5.2.1
 _ZTV16QPlaceMatchReply@Base 5.2.1
 _ZTV17QGeoCodingManager@Base 5.2.1
 _ZTV17QGeoMapController@Base 5.2.1
 _ZTV17QGeoTiledMapReply@Base 5.2.1
 _ZTV17QPlaceSearchReply@Base 5.2.1
 _ZTV18QGeoMappingManager@Base 5.2.1
 _ZTV18QGeoRoutingManager@Base 5.2.1
 _ZTV18QPlaceContentReply@Base 5.2.1
 _ZTV18QPlaceDetailsReply@Base 5.2.1
 _ZTV18QPlaceSearchResult@Base 5.2.1
 _ZTV19QGeoServiceProvider@Base 5.2.1
 _ZTV19QPlaceContactDetail@Base 5.2.1
 _ZTV19QPlaceManagerEngine@Base 5.2.1
 _ZTV23QGeoCodingManagerEngine@Base 5.2.1
 _ZTV24QGeoMappingManagerEngine@Base 5.2.1
 _ZTV24QGeoRoutingManagerEngine@Base 5.2.1
 _ZTV26QGeoCoordinateInterpolator@Base 5.2.1
 _ZTV26QGeoServiceProviderFactory@Base 5.2.1
 _ZTV26QPlaceProposedSearchResult@Base 5.2.1
 _ZTV27QPlaceSearchSuggestionReply@Base 5.2.1
 _ZTV29QGeoTiledMappingManagerEngine@Base 5.2.1
 _ZTV7QGeoMap@Base 5.2.1
 _Zls6QDebugRK12QGeoTileSpec@Base 5.2.1
